
bomb：     文件格式 elf32-i386


Disassembly of section .init:

080486f4 <_init>:
 80486f4:	53                   	push   %ebx
 80486f5:	83 ec 08             	sub    $0x8,%esp
 80486f8:	e8 13 02 00 00       	call   8048910 <__x86.get_pc_thunk.bx>
 80486fd:	81 c3 03 39 00 00    	add    $0x3903,%ebx
 8048703:	8b 83 fc ff ff ff    	mov    -0x4(%ebx),%eax
 8048709:	85 c0                	test   %eax,%eax
 804870b:	74 05                	je     8048712 <_init+0x1e>
 804870d:	e8 be 01 00 00       	call   80488d0 <__sprintf_chk@plt+0x10>
 8048712:	83 c4 08             	add    $0x8,%esp
 8048715:	5b                   	pop    %ebx
 8048716:	c3                   	ret    

Disassembly of section .plt:

08048720 <read@plt-0x10>:
 8048720:	ff 35 04 c0 04 08    	pushl  0x804c004
 8048726:	ff 25 08 c0 04 08    	jmp    *0x804c008
 804872c:	00 00                	add    %al,(%eax)
	...

08048730 <read@plt>:
 8048730:	ff 25 0c c0 04 08    	jmp    *0x804c00c
 8048736:	68 00 00 00 00       	push   $0x0
 804873b:	e9 e0 ff ff ff       	jmp    8048720 <_init+0x2c>

08048740 <fflush@plt>:
 8048740:	ff 25 10 c0 04 08    	jmp    *0x804c010
 8048746:	68 08 00 00 00       	push   $0x8
 804874b:	e9 d0 ff ff ff       	jmp    8048720 <_init+0x2c>

08048750 <fgets@plt>:
 8048750:	ff 25 14 c0 04 08    	jmp    *0x804c014
 8048756:	68 10 00 00 00       	push   $0x10
 804875b:	e9 c0 ff ff ff       	jmp    8048720 <_init+0x2c>

08048760 <signal@plt>:
 8048760:	ff 25 18 c0 04 08    	jmp    *0x804c018
 8048766:	68 18 00 00 00       	push   $0x18
 804876b:	e9 b0 ff ff ff       	jmp    8048720 <_init+0x2c>

08048770 <sleep@plt>:
 8048770:	ff 25 1c c0 04 08    	jmp    *0x804c01c
 8048776:	68 20 00 00 00       	push   $0x20
 804877b:	e9 a0 ff ff ff       	jmp    8048720 <_init+0x2c>

08048780 <alarm@plt>:
 8048780:	ff 25 20 c0 04 08    	jmp    *0x804c020
 8048786:	68 28 00 00 00       	push   $0x28
 804878b:	e9 90 ff ff ff       	jmp    8048720 <_init+0x2c>

08048790 <__stack_chk_fail@plt>:
 8048790:	ff 25 24 c0 04 08    	jmp    *0x804c024
 8048796:	68 30 00 00 00       	push   $0x30
 804879b:	e9 80 ff ff ff       	jmp    8048720 <_init+0x2c>

080487a0 <strcpy@plt>:
 80487a0:	ff 25 28 c0 04 08    	jmp    *0x804c028
 80487a6:	68 38 00 00 00       	push   $0x38
 80487ab:	e9 70 ff ff ff       	jmp    8048720 <_init+0x2c>

080487b0 <getenv@plt>:
 80487b0:	ff 25 2c c0 04 08    	jmp    *0x804c02c
 80487b6:	68 40 00 00 00       	push   $0x40
 80487bb:	e9 60 ff ff ff       	jmp    8048720 <_init+0x2c>

080487c0 <puts@plt>:
 80487c0:	ff 25 30 c0 04 08    	jmp    *0x804c030
 80487c6:	68 48 00 00 00       	push   $0x48
 80487cb:	e9 50 ff ff ff       	jmp    8048720 <_init+0x2c>

080487d0 <__memmove_chk@plt>:
 80487d0:	ff 25 34 c0 04 08    	jmp    *0x804c034
 80487d6:	68 50 00 00 00       	push   $0x50
 80487db:	e9 40 ff ff ff       	jmp    8048720 <_init+0x2c>

080487e0 <exit@plt>:
 80487e0:	ff 25 38 c0 04 08    	jmp    *0x804c038
 80487e6:	68 58 00 00 00       	push   $0x58
 80487eb:	e9 30 ff ff ff       	jmp    8048720 <_init+0x2c>

080487f0 <__libc_start_main@plt>:
 80487f0:	ff 25 3c c0 04 08    	jmp    *0x804c03c
 80487f6:	68 60 00 00 00       	push   $0x60
 80487fb:	e9 20 ff ff ff       	jmp    8048720 <_init+0x2c>

08048800 <write@plt>:
 8048800:	ff 25 40 c0 04 08    	jmp    *0x804c040
 8048806:	68 68 00 00 00       	push   $0x68
 804880b:	e9 10 ff ff ff       	jmp    8048720 <_init+0x2c>

08048810 <__isoc99_sscanf@plt>:
 8048810:	ff 25 44 c0 04 08    	jmp    *0x804c044
 8048816:	68 70 00 00 00       	push   $0x70
 804881b:	e9 00 ff ff ff       	jmp    8048720 <_init+0x2c>

08048820 <fopen@plt>:
 8048820:	ff 25 48 c0 04 08    	jmp    *0x804c048
 8048826:	68 78 00 00 00       	push   $0x78
 804882b:	e9 f0 fe ff ff       	jmp    8048720 <_init+0x2c>

08048830 <__errno_location@plt>:
 8048830:	ff 25 4c c0 04 08    	jmp    *0x804c04c
 8048836:	68 80 00 00 00       	push   $0x80
 804883b:	e9 e0 fe ff ff       	jmp    8048720 <_init+0x2c>

08048840 <__printf_chk@plt>:
 8048840:	ff 25 50 c0 04 08    	jmp    *0x804c050
 8048846:	68 88 00 00 00       	push   $0x88
 804884b:	e9 d0 fe ff ff       	jmp    8048720 <_init+0x2c>

08048850 <socket@plt>:
 8048850:	ff 25 54 c0 04 08    	jmp    *0x804c054
 8048856:	68 90 00 00 00       	push   $0x90
 804885b:	e9 c0 fe ff ff       	jmp    8048720 <_init+0x2c>

08048860 <__fprintf_chk@plt>:
 8048860:	ff 25 58 c0 04 08    	jmp    *0x804c058
 8048866:	68 98 00 00 00       	push   $0x98
 804886b:	e9 b0 fe ff ff       	jmp    8048720 <_init+0x2c>

08048870 <gethostbyname@plt>:
 8048870:	ff 25 5c c0 04 08    	jmp    *0x804c05c
 8048876:	68 a0 00 00 00       	push   $0xa0
 804887b:	e9 a0 fe ff ff       	jmp    8048720 <_init+0x2c>

08048880 <strtol@plt>:
 8048880:	ff 25 60 c0 04 08    	jmp    *0x804c060
 8048886:	68 a8 00 00 00       	push   $0xa8
 804888b:	e9 90 fe ff ff       	jmp    8048720 <_init+0x2c>

08048890 <connect@plt>:
 8048890:	ff 25 64 c0 04 08    	jmp    *0x804c064
 8048896:	68 b0 00 00 00       	push   $0xb0
 804889b:	e9 80 fe ff ff       	jmp    8048720 <_init+0x2c>

080488a0 <close@plt>:
 80488a0:	ff 25 68 c0 04 08    	jmp    *0x804c068
 80488a6:	68 b8 00 00 00       	push   $0xb8
 80488ab:	e9 70 fe ff ff       	jmp    8048720 <_init+0x2c>

080488b0 <__ctype_b_loc@plt>:
 80488b0:	ff 25 6c c0 04 08    	jmp    *0x804c06c
 80488b6:	68 c0 00 00 00       	push   $0xc0
 80488bb:	e9 60 fe ff ff       	jmp    8048720 <_init+0x2c>

080488c0 <__sprintf_chk@plt>:
 80488c0:	ff 25 70 c0 04 08    	jmp    *0x804c070
 80488c6:	68 c8 00 00 00       	push   $0xc8
 80488cb:	e9 50 fe ff ff       	jmp    8048720 <_init+0x2c>

Disassembly of section .plt.got:

080488d0 <.plt.got>:
 80488d0:	ff 25 fc bf 04 08    	jmp    *0x804bffc
 80488d6:	66 90                	xchg   %ax,%ax

Disassembly of section .text:

080488e0 <_start>:
 80488e0:	31 ed                	xor    %ebp,%ebp
 80488e2:	5e                   	pop    %esi
 80488e3:	89 e1                	mov    %esp,%ecx
 80488e5:	83 e4 f0             	and    $0xfffffff0,%esp
 80488e8:	50                   	push   %eax
 80488e9:	54                   	push   %esp
 80488ea:	52                   	push   %edx
 80488eb:	68 d0 9e 04 08       	push   $0x8049ed0
 80488f0:	68 70 9e 04 08       	push   $0x8049e70
 80488f5:	51                   	push   %ecx
 80488f6:	56                   	push   %esi
 80488f7:	68 db 89 04 08       	push   $0x80489db
 80488fc:	e8 ef fe ff ff       	call   80487f0 <__libc_start_main@plt>
 8048901:	f4                   	hlt    
 8048902:	66 90                	xchg   %ax,%ax
 8048904:	66 90                	xchg   %ax,%ax
 8048906:	66 90                	xchg   %ax,%ax
 8048908:	66 90                	xchg   %ax,%ax
 804890a:	66 90                	xchg   %ax,%ax
 804890c:	66 90                	xchg   %ax,%ax
 804890e:	66 90                	xchg   %ax,%ax

08048910 <__x86.get_pc_thunk.bx>:
 8048910:	8b 1c 24             	mov    (%esp),%ebx
 8048913:	c3                   	ret    
 8048914:	66 90                	xchg   %ax,%ax
 8048916:	66 90                	xchg   %ax,%ax
 8048918:	66 90                	xchg   %ax,%ax
 804891a:	66 90                	xchg   %ax,%ax
 804891c:	66 90                	xchg   %ax,%ax
 804891e:	66 90                	xchg   %ax,%ax

08048920 <deregister_tm_clones>:
 8048920:	b8 a3 c3 04 08       	mov    $0x804c3a3,%eax
 8048925:	2d a0 c3 04 08       	sub    $0x804c3a0,%eax
 804892a:	83 f8 06             	cmp    $0x6,%eax
 804892d:	76 1a                	jbe    8048949 <deregister_tm_clones+0x29>
 804892f:	b8 00 00 00 00       	mov    $0x0,%eax
 8048934:	85 c0                	test   %eax,%eax
 8048936:	74 11                	je     8048949 <deregister_tm_clones+0x29>
 8048938:	55                   	push   %ebp
 8048939:	89 e5                	mov    %esp,%ebp
 804893b:	83 ec 14             	sub    $0x14,%esp
 804893e:	68 a0 c3 04 08       	push   $0x804c3a0
 8048943:	ff d0                	call   *%eax
 8048945:	83 c4 10             	add    $0x10,%esp
 8048948:	c9                   	leave  
 8048949:	f3 c3                	repz ret 
 804894b:	90                   	nop
 804894c:	8d 74 26 00          	lea    0x0(%esi,%eiz,1),%esi

08048950 <register_tm_clones>:
 8048950:	b8 a0 c3 04 08       	mov    $0x804c3a0,%eax
 8048955:	2d a0 c3 04 08       	sub    $0x804c3a0,%eax
 804895a:	c1 f8 02             	sar    $0x2,%eax
 804895d:	89 c2                	mov    %eax,%edx
 804895f:	c1 ea 1f             	shr    $0x1f,%edx
 8048962:	01 d0                	add    %edx,%eax
 8048964:	d1 f8                	sar    %eax
 8048966:	74 1b                	je     8048983 <register_tm_clones+0x33>
 8048968:	ba 00 00 00 00       	mov    $0x0,%edx
 804896d:	85 d2                	test   %edx,%edx
 804896f:	74 12                	je     8048983 <register_tm_clones+0x33>
 8048971:	55                   	push   %ebp
 8048972:	89 e5                	mov    %esp,%ebp
 8048974:	83 ec 10             	sub    $0x10,%esp
 8048977:	50                   	push   %eax
 8048978:	68 a0 c3 04 08       	push   $0x804c3a0
 804897d:	ff d2                	call   *%edx
 804897f:	83 c4 10             	add    $0x10,%esp
 8048982:	c9                   	leave  
 8048983:	f3 c3                	repz ret 
 8048985:	8d 74 26 00          	lea    0x0(%esi,%eiz,1),%esi
 8048989:	8d bc 27 00 00 00 00 	lea    0x0(%edi,%eiz,1),%edi

08048990 <__do_global_dtors_aux>:
 8048990:	80 3d c8 c3 04 08 00 	cmpb   $0x0,0x804c3c8
 8048997:	75 13                	jne    80489ac <__do_global_dtors_aux+0x1c>
 8048999:	55                   	push   %ebp
 804899a:	89 e5                	mov    %esp,%ebp
 804899c:	83 ec 08             	sub    $0x8,%esp
 804899f:	e8 7c ff ff ff       	call   8048920 <deregister_tm_clones>
 80489a4:	c6 05 c8 c3 04 08 01 	movb   $0x1,0x804c3c8
 80489ab:	c9                   	leave  
 80489ac:	f3 c3                	repz ret 
 80489ae:	66 90                	xchg   %ax,%ax

080489b0 <frame_dummy>:
 80489b0:	b8 10 bf 04 08       	mov    $0x804bf10,%eax
 80489b5:	8b 10                	mov    (%eax),%edx
 80489b7:	85 d2                	test   %edx,%edx
 80489b9:	75 05                	jne    80489c0 <frame_dummy+0x10>
 80489bb:	eb 93                	jmp    8048950 <register_tm_clones>
 80489bd:	8d 76 00             	lea    0x0(%esi),%esi
 80489c0:	ba 00 00 00 00       	mov    $0x0,%edx
 80489c5:	85 d2                	test   %edx,%edx
 80489c7:	74 f2                	je     80489bb <frame_dummy+0xb>
 80489c9:	55                   	push   %ebp
 80489ca:	89 e5                	mov    %esp,%ebp
 80489cc:	83 ec 14             	sub    $0x14,%esp
 80489cf:	50                   	push   %eax
 80489d0:	ff d2                	call   *%edx
 80489d2:	83 c4 10             	add    $0x10,%esp
 80489d5:	c9                   	leave  
 80489d6:	e9 75 ff ff ff       	jmp    8048950 <register_tm_clones>

080489db <main>:
 80489db:	8d 4c 24 04          	lea    0x4(%esp),%ecx
 80489df:	83 e4 f0             	and    $0xfffffff0,%esp
 80489e2:	ff 71 fc             	pushl  -0x4(%ecx)
 80489e5:	55                   	push   %ebp
 80489e6:	89 e5                	mov    %esp,%ebp
 80489e8:	53                   	push   %ebx
 80489e9:	51                   	push   %ecx
 80489ea:	8b 01                	mov    (%ecx),%eax
 80489ec:	8b 59 04             	mov    0x4(%ecx),%ebx
 80489ef:	83 f8 01             	cmp    $0x1,%eax
 80489f2:	0f 84 01 01 00 00    	je     8048af9 <main+0x11e>
 80489f8:	83 f8 02             	cmp    $0x2,%eax
 80489fb:	0f 85 24 01 00 00    	jne    8048b25 <main+0x14a>
 8048a01:	83 ec 08             	sub    $0x8,%esp
 8048a04:	68 08 9f 04 08       	push   $0x8049f08
 8048a09:	ff 73 04             	pushl  0x4(%ebx)
 8048a0c:	e8 0f fe ff ff       	call   8048820 <fopen@plt>
 8048a11:	a3 d0 c3 04 08       	mov    %eax,0x804c3d0
 8048a16:	83 c4 10             	add    $0x10,%esp
 8048a19:	85 c0                	test   %eax,%eax
 8048a1b:	0f 84 e7 00 00 00    	je     8048b08 <main+0x12d>
 8048a21:	e8 76 06 00 00       	call   804909c <initialize_bomb>
 8048a26:	83 ec 0c             	sub    $0xc,%esp
 8048a29:	68 8c 9f 04 08       	push   $0x8049f8c
 8048a2e:	e8 8d fd ff ff       	call   80487c0 <puts@plt>
 8048a33:	c7 04 24 c8 9f 04 08 	movl   $0x8049fc8,(%esp)
 8048a3a:	e8 81 fd ff ff       	call   80487c0 <puts@plt>
 8048a3f:	e8 48 07 00 00       	call   804918c <read_line>
 8048a44:	89 04 24             	mov    %eax,(%esp)
 8048a47:	e8 f6 00 00 00       	call   8048b42 <phase_1>
 8048a4c:	e8 3a 08 00 00       	call   804928b <phase_defused>
 8048a51:	c7 04 24 f4 9f 04 08 	movl   $0x8049ff4,(%esp)
 8048a58:	e8 63 fd ff ff       	call   80487c0 <puts@plt>
 8048a5d:	e8 2a 07 00 00       	call   804918c <read_line>
 8048a62:	89 04 24             	mov    %eax,(%esp)
 8048a65:	e8 fb 00 00 00       	call   8048b65 <phase_2>
 8048a6a:	e8 1c 08 00 00       	call   804928b <phase_defused>
 8048a6f:	c7 04 24 41 9f 04 08 	movl   $0x8049f41,(%esp)
 8048a76:	e8 45 fd ff ff       	call   80487c0 <puts@plt>
 8048a7b:	e8 0c 07 00 00       	call   804918c <read_line>
 8048a80:	89 04 24             	mov    %eax,(%esp)
 8048a83:	e8 44 01 00 00       	call   8048bcc <phase_3>
 8048a88:	e8 fe 07 00 00       	call   804928b <phase_defused>
 8048a8d:	c7 04 24 5f 9f 04 08 	movl   $0x8049f5f,(%esp)
 8048a94:	e8 27 fd ff ff       	call   80487c0 <puts@plt>
 8048a99:	e8 ee 06 00 00       	call   804918c <read_line>
 8048a9e:	89 04 24             	mov    %eax,(%esp)
 8048aa1:	e8 59 02 00 00       	call   8048cff <phase_4>
 8048aa6:	e8 e0 07 00 00       	call   804928b <phase_defused>
 8048aab:	c7 04 24 20 a0 04 08 	movl   $0x804a020,(%esp)
 8048ab2:	e8 09 fd ff ff       	call   80487c0 <puts@plt>
 8048ab7:	e8 d0 06 00 00       	call   804918c <read_line>
 8048abc:	89 04 24             	mov    %eax,(%esp)
 8048abf:	e8 b4 02 00 00       	call   8048d78 <phase_5>
 8048ac4:	e8 c2 07 00 00       	call   804928b <phase_defused>
 8048ac9:	c7 04 24 6e 9f 04 08 	movl   $0x8049f6e,(%esp)
 8048ad0:	e8 eb fc ff ff       	call   80487c0 <puts@plt>
 8048ad5:	e8 b2 06 00 00       	call   804918c <read_line>
 8048ada:	89 04 24             	mov    %eax,(%esp)
 8048add:	e8 25 03 00 00       	call   8048e07 <phase_6>
 8048ae2:	e8 a4 07 00 00       	call   804928b <phase_defused>
 8048ae7:	83 c4 10             	add    $0x10,%esp
 8048aea:	b8 00 00 00 00       	mov    $0x0,%eax
 8048aef:	8d 65 f8             	lea    -0x8(%ebp),%esp
 8048af2:	59                   	pop    %ecx
 8048af3:	5b                   	pop    %ebx
 8048af4:	5d                   	pop    %ebp
 8048af5:	8d 61 fc             	lea    -0x4(%ecx),%esp
 8048af8:	c3                   	ret    
 8048af9:	a1 c0 c3 04 08       	mov    0x804c3c0,%eax
 8048afe:	a3 d0 c3 04 08       	mov    %eax,0x804c3d0
 8048b03:	e9 19 ff ff ff       	jmp    8048a21 <main+0x46>
 8048b08:	ff 73 04             	pushl  0x4(%ebx)
 8048b0b:	ff 33                	pushl  (%ebx)
 8048b0d:	68 0a 9f 04 08       	push   $0x8049f0a
 8048b12:	6a 01                	push   $0x1
 8048b14:	e8 27 fd ff ff       	call   8048840 <__printf_chk@plt>
 8048b19:	c7 04 24 08 00 00 00 	movl   $0x8,(%esp)
 8048b20:	e8 bb fc ff ff       	call   80487e0 <exit@plt>
 8048b25:	83 ec 04             	sub    $0x4,%esp
 8048b28:	ff 33                	pushl  (%ebx)
 8048b2a:	68 27 9f 04 08       	push   $0x8049f27
 8048b2f:	6a 01                	push   $0x1
 8048b31:	e8 0a fd ff ff       	call   8048840 <__printf_chk@plt>
 8048b36:	c7 04 24 08 00 00 00 	movl   $0x8,(%esp)
 8048b3d:	e8 9e fc ff ff       	call   80487e0 <exit@plt>

08048b42 <phase_1>:
 8048b42:	83 ec 14             	sub    $0x14,%esp
 8048b45:	68 44 a0 04 08       	push   $0x804a044
 8048b4a:	ff 74 24 1c          	pushl  0x1c(%esp)
 8048b4e:	e8 e4 04 00 00       	call   8049037 <strings_not_equal>
 8048b53:	83 c4 10             	add    $0x10,%esp
 8048b56:	85 c0                	test   %eax,%eax
 8048b58:	75 04                	jne    8048b5e <phase_1+0x1c>
 8048b5a:	83 c4 0c             	add    $0xc,%esp
 8048b5d:	c3                   	ret    
 8048b5e:	e8 c9 05 00 00       	call   804912c <explode_bomb>
 8048b63:	eb f5                	jmp    8048b5a <phase_1+0x18>

08048b65 <phase_2>:
 8048b65:	56                   	push   %esi
 8048b66:	53                   	push   %ebx
 8048b67:	83 ec 2c             	sub    $0x2c,%esp
 8048b6a:	65 a1 14 00 00 00    	mov    %gs:0x14,%eax
 8048b70:	89 44 24 24          	mov    %eax,0x24(%esp)
 8048b74:	31 c0                	xor    %eax,%eax
 8048b76:	8d 44 24 0c          	lea    0xc(%esp),%eax
 8048b7a:	50                   	push   %eax
 8048b7b:	ff 74 24 3c          	pushl  0x3c(%esp)
 8048b7f:	e8 cd 05 00 00       	call   8049151 <read_six_numbers>
 8048b84:	83 c4 10             	add    $0x10,%esp
 8048b87:	83 7c 24 04 01       	cmpl   $0x1,0x4(%esp)
 8048b8c:	74 05                	je     8048b93 <phase_2+0x2e>
 8048b8e:	e8 99 05 00 00       	call   804912c <explode_bomb>
 8048b93:	8d 5c 24 04          	lea    0x4(%esp),%ebx
 8048b97:	8d 74 24 18          	lea    0x18(%esp),%esi
 8048b9b:	eb 07                	jmp    8048ba4 <phase_2+0x3f>
 8048b9d:	83 c3 04             	add    $0x4,%ebx
 8048ba0:	39 f3                	cmp    %esi,%ebx
 8048ba2:	74 10                	je     8048bb4 <phase_2+0x4f>
 8048ba4:	8b 03                	mov    (%ebx),%eax
 8048ba6:	01 c0                	add    %eax,%eax
 8048ba8:	39 43 04             	cmp    %eax,0x4(%ebx)
 8048bab:	74 f0                	je     8048b9d <phase_2+0x38>
 8048bad:	e8 7a 05 00 00       	call   804912c <explode_bomb>
 8048bb2:	eb e9                	jmp    8048b9d <phase_2+0x38>
 8048bb4:	8b 44 24 1c          	mov    0x1c(%esp),%eax
 8048bb8:	65 33 05 14 00 00 00 	xor    %gs:0x14,%eax
 8048bbf:	75 06                	jne    8048bc7 <phase_2+0x62>
 8048bc1:	83 c4 24             	add    $0x24,%esp
 8048bc4:	5b                   	pop    %ebx
 8048bc5:	5e                   	pop    %esi
 8048bc6:	c3                   	ret    
 8048bc7:	e8 c4 fb ff ff       	call   8048790 <__stack_chk_fail@plt>

08048bcc <phase_3>:
 8048bcc:	83 ec 1c             	sub    $0x1c,%esp
 8048bcf:	65 a1 14 00 00 00    	mov    %gs:0x14,%eax
 8048bd5:	89 44 24 0c          	mov    %eax,0xc(%esp)
 8048bd9:	31 c0                	xor    %eax,%eax
 8048bdb:	8d 44 24 08          	lea    0x8(%esp),%eax
 8048bdf:	50                   	push   %eax
 8048be0:	8d 44 24 08          	lea    0x8(%esp),%eax
 8048be4:	50                   	push   %eax
 8048be5:	68 0f a2 04 08       	push   $0x804a20f
 8048bea:	ff 74 24 2c          	pushl  0x2c(%esp)
 8048bee:	e8 1d fc ff ff       	call   8048810 <__isoc99_sscanf@plt>
 8048bf3:	83 c4 10             	add    $0x10,%esp
 8048bf6:	83 f8 01             	cmp    $0x1,%eax
 8048bf9:	7e 16                	jle    8048c11 <phase_3+0x45>
 8048bfb:	83 7c 24 04 07       	cmpl   $0x7,0x4(%esp)
 8048c00:	0f 87 8e 00 00 00    	ja     8048c94 <phase_3+0xc8>
 8048c06:	8b 44 24 04          	mov    0x4(%esp),%eax
 8048c0a:	ff 24 85 a0 a0 04 08 	jmp    *0x804a0a0(,%eax,4)
 8048c11:	e8 16 05 00 00       	call   804912c <explode_bomb>
 8048c16:	eb e3                	jmp    8048bfb <phase_3+0x2f>
 8048c18:	b8 ac 01 00 00       	mov    $0x1ac,%eax
 8048c1d:	eb 05                	jmp    8048c24 <phase_3+0x58>
 8048c1f:	b8 00 00 00 00       	mov    $0x0,%eax
 8048c24:	2d 98 00 00 00       	sub    $0x98,%eax
 8048c29:	05 00 01 00 00       	add    $0x100,%eax
 8048c2e:	2d 3c 01 00 00       	sub    $0x13c,%eax
 8048c33:	05 3c 01 00 00       	add    $0x13c,%eax
 8048c38:	2d 3c 01 00 00       	sub    $0x13c,%eax
 8048c3d:	05 3c 01 00 00       	add    $0x13c,%eax
 8048c42:	2d 3c 01 00 00       	sub    $0x13c,%eax
 8048c47:	83 7c 24 04 05       	cmpl   $0x5,0x4(%esp)
 8048c4c:	7f 06                	jg     8048c54 <phase_3+0x88>
 8048c4e:	3b 44 24 08          	cmp    0x8(%esp),%eax
 8048c52:	74 05                	je     8048c59 <phase_3+0x8d>
 8048c54:	e8 d3 04 00 00       	call   804912c <explode_bomb>
 8048c59:	8b 44 24 0c          	mov    0xc(%esp),%eax
 8048c5d:	65 33 05 14 00 00 00 	xor    %gs:0x14,%eax
 8048c64:	75 3a                	jne    8048ca0 <phase_3+0xd4>
 8048c66:	83 c4 1c             	add    $0x1c,%esp
 8048c69:	c3                   	ret    
 8048c6a:	b8 00 00 00 00       	mov    $0x0,%eax
 8048c6f:	eb b8                	jmp    8048c29 <phase_3+0x5d>
 8048c71:	b8 00 00 00 00       	mov    $0x0,%eax
 8048c76:	eb b6                	jmp    8048c2e <phase_3+0x62>
 8048c78:	b8 00 00 00 00       	mov    $0x0,%eax
 8048c7d:	eb b4                	jmp    8048c33 <phase_3+0x67>
 8048c7f:	b8 00 00 00 00       	mov    $0x0,%eax
 8048c84:	eb b2                	jmp    8048c38 <phase_3+0x6c>
 8048c86:	b8 00 00 00 00       	mov    $0x0,%eax
 8048c8b:	eb b0                	jmp    8048c3d <phase_3+0x71>
 8048c8d:	b8 00 00 00 00       	mov    $0x0,%eax
 8048c92:	eb ae                	jmp    8048c42 <phase_3+0x76>
 8048c94:	e8 93 04 00 00       	call   804912c <explode_bomb>
 8048c99:	b8 00 00 00 00       	mov    $0x0,%eax
 8048c9e:	eb a7                	jmp    8048c47 <phase_3+0x7b>
 8048ca0:	e8 eb fa ff ff       	call   8048790 <__stack_chk_fail@plt>

08048ca5 <func4>:
 8048ca5:	56                   	push   %esi
 8048ca6:	53                   	push   %ebx
 8048ca7:	83 ec 04             	sub    $0x4,%esp
 8048caa:	8b 44 24 10          	mov    0x10(%esp),%eax
 8048cae:	8b 54 24 14          	mov    0x14(%esp),%edx
 8048cb2:	8b 4c 24 18          	mov    0x18(%esp),%ecx
 8048cb6:	89 ce                	mov    %ecx,%esi
 8048cb8:	29 d6                	sub    %edx,%esi
 8048cba:	89 f3                	mov    %esi,%ebx
 8048cbc:	c1 eb 1f             	shr    $0x1f,%ebx
 8048cbf:	01 f3                	add    %esi,%ebx
 8048cc1:	d1 fb                	sar    %ebx
 8048cc3:	01 d3                	add    %edx,%ebx
 8048cc5:	39 c3                	cmp    %eax,%ebx
 8048cc7:	7f 0c                	jg     8048cd5 <func4+0x30>
 8048cc9:	39 c3                	cmp    %eax,%ebx
 8048ccb:	7c 1d                	jl     8048cea <func4+0x45>
 8048ccd:	89 d8                	mov    %ebx,%eax
 8048ccf:	83 c4 04             	add    $0x4,%esp
 8048cd2:	5b                   	pop    %ebx
 8048cd3:	5e                   	pop    %esi
 8048cd4:	c3                   	ret    
 8048cd5:	83 ec 04             	sub    $0x4,%esp
 8048cd8:	8d 4b ff             	lea    -0x1(%ebx),%ecx
 8048cdb:	51                   	push   %ecx
 8048cdc:	52                   	push   %edx
 8048cdd:	50                   	push   %eax
 8048cde:	e8 c2 ff ff ff       	call   8048ca5 <func4>
 8048ce3:	83 c4 10             	add    $0x10,%esp
 8048ce6:	01 c3                	add    %eax,%ebx
 8048ce8:	eb e3                	jmp    8048ccd <func4+0x28>
 8048cea:	83 ec 04             	sub    $0x4,%esp
 8048ced:	51                   	push   %ecx
 8048cee:	8d 53 01             	lea    0x1(%ebx),%edx
 8048cf1:	52                   	push   %edx
 8048cf2:	50                   	push   %eax
 8048cf3:	e8 ad ff ff ff       	call   8048ca5 <func4>
 8048cf8:	83 c4 10             	add    $0x10,%esp
 8048cfb:	01 c3                	add    %eax,%ebx
 8048cfd:	eb ce                	jmp    8048ccd <func4+0x28>

08048cff <phase_4>:
 8048cff:	83 ec 1c             	sub    $0x1c,%esp
 8048d02:	65 a1 14 00 00 00    	mov    %gs:0x14,%eax
 8048d08:	89 44 24 0c          	mov    %eax,0xc(%esp)
 8048d0c:	31 c0                	xor    %eax,%eax
 8048d0e:	8d 44 24 08          	lea    0x8(%esp),%eax
 8048d12:	50                   	push   %eax
 8048d13:	8d 44 24 08          	lea    0x8(%esp),%eax
 8048d17:	50                   	push   %eax
 8048d18:	68 0f a2 04 08       	push   $0x804a20f
 8048d1d:	ff 74 24 2c          	pushl  0x2c(%esp)
 8048d21:	e8 ea fa ff ff       	call   8048810 <__isoc99_sscanf@plt>
 8048d26:	83 c4 10             	add    $0x10,%esp
 8048d29:	83 f8 02             	cmp    $0x2,%eax
 8048d2c:	74 33                	je     8048d61 <phase_4+0x62>
 8048d2e:	e8 f9 03 00 00       	call   804912c <explode_bomb>
 8048d33:	83 ec 04             	sub    $0x4,%esp
 8048d36:	6a 0e                	push   $0xe
 8048d38:	6a 00                	push   $0x0
 8048d3a:	ff 74 24 10          	pushl  0x10(%esp)
 8048d3e:	e8 62 ff ff ff       	call   8048ca5 <func4>
 8048d43:	83 c4 10             	add    $0x10,%esp
 8048d46:	83 f8 1f             	cmp    $0x1f,%eax
 8048d49:	74 1f                	je     8048d6a <phase_4+0x6b>
 8048d4b:	e8 dc 03 00 00       	call   804912c <explode_bomb>
 8048d50:	8b 44 24 0c          	mov    0xc(%esp),%eax
 8048d54:	65 33 05 14 00 00 00 	xor    %gs:0x14,%eax
 8048d5b:	75 16                	jne    8048d73 <phase_4+0x74>
 8048d5d:	83 c4 1c             	add    $0x1c,%esp
 8048d60:	c3                   	ret    
 8048d61:	83 7c 24 04 0e       	cmpl   $0xe,0x4(%esp)
 8048d66:	76 cb                	jbe    8048d33 <phase_4+0x34>
 8048d68:	eb c4                	jmp    8048d2e <phase_4+0x2f>
 8048d6a:	83 7c 24 08 1f       	cmpl   $0x1f,0x8(%esp)
 8048d6f:	75 da                	jne    8048d4b <phase_4+0x4c>
 8048d71:	eb dd                	jmp    8048d50 <phase_4+0x51>
 8048d73:	e8 18 fa ff ff       	call   8048790 <__stack_chk_fail@plt>

08048d78 <phase_5>:
 8048d78:	83 ec 1c             	sub    $0x1c,%esp
 8048d7b:	65 a1 14 00 00 00    	mov    %gs:0x14,%eax
 8048d81:	89 44 24 0c          	mov    %eax,0xc(%esp)
 8048d85:	31 c0                	xor    %eax,%eax
 8048d87:	8d 44 24 08          	lea    0x8(%esp),%eax
 8048d8b:	50                   	push   %eax
 8048d8c:	8d 44 24 08          	lea    0x8(%esp),%eax
 8048d90:	50                   	push   %eax
 8048d91:	68 0f a2 04 08       	push   $0x804a20f
 8048d96:	ff 74 24 2c          	pushl  0x2c(%esp)
 8048d9a:	e8 71 fa ff ff       	call   8048810 <__isoc99_sscanf@plt>
 8048d9f:	83 c4 10             	add    $0x10,%esp
 8048da2:	83 f8 01             	cmp    $0x1,%eax
 8048da5:	7e 54                	jle    8048dfb <phase_5+0x83>
 8048da7:	8b 44 24 04          	mov    0x4(%esp),%eax
 8048dab:	83 e0 0f             	and    $0xf,%eax
 8048dae:	89 44 24 04          	mov    %eax,0x4(%esp)
 8048db2:	83 f8 0f             	cmp    $0xf,%eax
 8048db5:	74 2e                	je     8048de5 <phase_5+0x6d>
 8048db7:	b9 00 00 00 00       	mov    $0x0,%ecx
 8048dbc:	ba 00 00 00 00       	mov    $0x0,%edx
 8048dc1:	83 c2 01             	add    $0x1,%edx
 8048dc4:	8b 04 85 c0 a0 04 08 	mov    0x804a0c0(,%eax,4),%eax
 8048dcb:	01 c1                	add    %eax,%ecx
 8048dcd:	83 f8 0f             	cmp    $0xf,%eax
 8048dd0:	75 ef                	jne    8048dc1 <phase_5+0x49>
 8048dd2:	c7 44 24 04 0f 00 00 	movl   $0xf,0x4(%esp)
 8048dd9:	00 
 8048dda:	83 fa 0f             	cmp    $0xf,%edx
 8048ddd:	75 06                	jne    8048de5 <phase_5+0x6d>
 8048ddf:	3b 4c 24 08          	cmp    0x8(%esp),%ecx
 8048de3:	74 05                	je     8048dea <phase_5+0x72>
 8048de5:	e8 42 03 00 00       	call   804912c <explode_bomb>
 8048dea:	8b 44 24 0c          	mov    0xc(%esp),%eax
 8048dee:	65 33 05 14 00 00 00 	xor    %gs:0x14,%eax
 8048df5:	75 0b                	jne    8048e02 <phase_5+0x8a>
 8048df7:	83 c4 1c             	add    $0x1c,%esp
 8048dfa:	c3                   	ret    
 8048dfb:	e8 2c 03 00 00       	call   804912c <explode_bomb>
 8048e00:	eb a5                	jmp    8048da7 <phase_5+0x2f>
 8048e02:	e8 89 f9 ff ff       	call   8048790 <__stack_chk_fail@plt>

08048e07 <phase_6>:
 8048e07:	56                   	push   %esi
 8048e08:	53                   	push   %ebx
 8048e09:	83 ec 4c             	sub    $0x4c,%esp
 8048e0c:	65 a1 14 00 00 00    	mov    %gs:0x14,%eax
 8048e12:	89 44 24 44          	mov    %eax,0x44(%esp)
 8048e16:	31 c0                	xor    %eax,%eax
 8048e18:	8d 44 24 14          	lea    0x14(%esp),%eax
 8048e1c:	50                   	push   %eax
 8048e1d:	ff 74 24 5c          	pushl  0x5c(%esp)
 8048e21:	e8 2b 03 00 00       	call   8049151 <read_six_numbers>
 8048e26:	83 c4 10             	add    $0x10,%esp
 8048e29:	be 00 00 00 00       	mov    $0x0,%esi
 8048e2e:	eb 1c                	jmp    8048e4c <phase_6+0x45>
 8048e30:	83 c6 01             	add    $0x1,%esi
 8048e33:	83 fe 06             	cmp    $0x6,%esi
 8048e36:	74 2e                	je     8048e66 <phase_6+0x5f>
 8048e38:	89 f3                	mov    %esi,%ebx
 8048e3a:	8b 44 9c 0c          	mov    0xc(%esp,%ebx,4),%eax
 8048e3e:	39 44 b4 08          	cmp    %eax,0x8(%esp,%esi,4)
 8048e42:	74 1b                	je     8048e5f <phase_6+0x58>
 8048e44:	83 c3 01             	add    $0x1,%ebx
 8048e47:	83 fb 05             	cmp    $0x5,%ebx
 8048e4a:	7e ee                	jle    8048e3a <phase_6+0x33>
 8048e4c:	8b 44 b4 0c          	mov    0xc(%esp,%esi,4),%eax
 8048e50:	83 e8 01             	sub    $0x1,%eax
 8048e53:	83 f8 05             	cmp    $0x5,%eax
 8048e56:	76 d8                	jbe    8048e30 <phase_6+0x29>
 8048e58:	e8 cf 02 00 00       	call   804912c <explode_bomb>
 8048e5d:	eb d1                	jmp    8048e30 <phase_6+0x29>
 8048e5f:	e8 c8 02 00 00       	call   804912c <explode_bomb>
 8048e64:	eb de                	jmp    8048e44 <phase_6+0x3d>
 8048e66:	bb 00 00 00 00       	mov    $0x0,%ebx
 8048e6b:	89 de                	mov    %ebx,%esi
 8048e6d:	8b 4c 9c 0c          	mov    0xc(%esp,%ebx,4),%ecx
 8048e71:	b8 01 00 00 00       	mov    $0x1,%eax
 8048e76:	ba 3c c1 04 08       	mov    $0x804c13c,%edx
 8048e7b:	83 f9 01             	cmp    $0x1,%ecx
 8048e7e:	7e 0a                	jle    8048e8a <phase_6+0x83>
 8048e80:	8b 52 08             	mov    0x8(%edx),%edx
 8048e83:	83 c0 01             	add    $0x1,%eax
 8048e86:	39 c8                	cmp    %ecx,%eax
 8048e88:	75 f6                	jne    8048e80 <phase_6+0x79>
 8048e8a:	89 54 b4 24          	mov    %edx,0x24(%esp,%esi,4)
 8048e8e:	83 c3 01             	add    $0x1,%ebx
 8048e91:	83 fb 06             	cmp    $0x6,%ebx
 8048e94:	75 d5                	jne    8048e6b <phase_6+0x64>
 8048e96:	8b 5c 24 24          	mov    0x24(%esp),%ebx
 8048e9a:	89 d9                	mov    %ebx,%ecx
 8048e9c:	b8 01 00 00 00       	mov    $0x1,%eax
 8048ea1:	8b 54 84 24          	mov    0x24(%esp,%eax,4),%edx
 8048ea5:	89 51 08             	mov    %edx,0x8(%ecx)
 8048ea8:	83 c0 01             	add    $0x1,%eax
 8048eab:	89 d1                	mov    %edx,%ecx
 8048ead:	83 f8 06             	cmp    $0x6,%eax
 8048eb0:	75 ef                	jne    8048ea1 <phase_6+0x9a>
 8048eb2:	c7 42 08 00 00 00 00 	movl   $0x0,0x8(%edx)
 8048eb9:	be 05 00 00 00       	mov    $0x5,%esi
 8048ebe:	eb 08                	jmp    8048ec8 <phase_6+0xc1>
 8048ec0:	8b 5b 08             	mov    0x8(%ebx),%ebx
 8048ec3:	83 ee 01             	sub    $0x1,%esi
 8048ec6:	74 10                	je     8048ed8 <phase_6+0xd1>
 8048ec8:	8b 43 08             	mov    0x8(%ebx),%eax
 8048ecb:	8b 00                	mov    (%eax),%eax
 8048ecd:	39 03                	cmp    %eax,(%ebx)
 8048ecf:	7e ef                	jle    8048ec0 <phase_6+0xb9>
 8048ed1:	e8 56 02 00 00       	call   804912c <explode_bomb>
 8048ed6:	eb e8                	jmp    8048ec0 <phase_6+0xb9>
 8048ed8:	8b 44 24 3c          	mov    0x3c(%esp),%eax
 8048edc:	65 33 05 14 00 00 00 	xor    %gs:0x14,%eax
 8048ee3:	75 06                	jne    8048eeb <phase_6+0xe4>
 8048ee5:	83 c4 44             	add    $0x44,%esp
 8048ee8:	5b                   	pop    %ebx
 8048ee9:	5e                   	pop    %esi
 8048eea:	c3                   	ret    
 8048eeb:	e8 a0 f8 ff ff       	call   8048790 <__stack_chk_fail@plt>

08048ef0 <fun7>:
 8048ef0:	53                   	push   %ebx
 8048ef1:	83 ec 08             	sub    $0x8,%esp
 8048ef4:	8b 54 24 10          	mov    0x10(%esp),%edx
 8048ef8:	8b 4c 24 14          	mov    0x14(%esp),%ecx
 8048efc:	85 d2                	test   %edx,%edx
 8048efe:	74 3a                	je     8048f3a <fun7+0x4a>
 8048f00:	8b 1a                	mov    (%edx),%ebx
 8048f02:	39 cb                	cmp    %ecx,%ebx
 8048f04:	7f 21                	jg     8048f27 <fun7+0x37>
 8048f06:	b8 00 00 00 00       	mov    $0x0,%eax
 8048f0b:	39 cb                	cmp    %ecx,%ebx
 8048f0d:	74 13                	je     8048f22 <fun7+0x32>
 8048f0f:	83 ec 08             	sub    $0x8,%esp
 8048f12:	51                   	push   %ecx
 8048f13:	ff 72 08             	pushl  0x8(%edx)
 8048f16:	e8 d5 ff ff ff       	call   8048ef0 <fun7>
 8048f1b:	83 c4 10             	add    $0x10,%esp
 8048f1e:	8d 44 00 01          	lea    0x1(%eax,%eax,1),%eax
 8048f22:	83 c4 08             	add    $0x8,%esp
 8048f25:	5b                   	pop    %ebx
 8048f26:	c3                   	ret    
 8048f27:	83 ec 08             	sub    $0x8,%esp
 8048f2a:	51                   	push   %ecx
 8048f2b:	ff 72 04             	pushl  0x4(%edx)
 8048f2e:	e8 bd ff ff ff       	call   8048ef0 <fun7>
 8048f33:	83 c4 10             	add    $0x10,%esp
 8048f36:	01 c0                	add    %eax,%eax
 8048f38:	eb e8                	jmp    8048f22 <fun7+0x32>
 8048f3a:	b8 ff ff ff ff       	mov    $0xffffffff,%eax
 8048f3f:	eb e1                	jmp    8048f22 <fun7+0x32>

08048f41 <secret_phase>:
 8048f41:	53                   	push   %ebx
 8048f42:	83 ec 08             	sub    $0x8,%esp
 8048f45:	e8 42 02 00 00       	call   804918c <read_line>
 8048f4a:	83 ec 04             	sub    $0x4,%esp
 8048f4d:	6a 0a                	push   $0xa
 8048f4f:	6a 00                	push   $0x0
 8048f51:	50                   	push   %eax
 8048f52:	e8 29 f9 ff ff       	call   8048880 <strtol@plt>
 8048f57:	89 c3                	mov    %eax,%ebx
 8048f59:	8d 40 ff             	lea    -0x1(%eax),%eax
 8048f5c:	83 c4 10             	add    $0x10,%esp
 8048f5f:	3d e8 03 00 00       	cmp    $0x3e8,%eax
 8048f64:	77 32                	ja     8048f98 <secret_phase+0x57>
 8048f66:	83 ec 08             	sub    $0x8,%esp
 8048f69:	53                   	push   %ebx
 8048f6a:	68 88 c0 04 08       	push   $0x804c088
 8048f6f:	e8 7c ff ff ff       	call   8048ef0 <fun7>
 8048f74:	83 c4 10             	add    $0x10,%esp
 8048f77:	83 f8 02             	cmp    $0x2,%eax
 8048f7a:	74 05                	je     8048f81 <secret_phase+0x40>
 8048f7c:	e8 ab 01 00 00       	call   804912c <explode_bomb>
 8048f81:	83 ec 0c             	sub    $0xc,%esp
 8048f84:	68 70 a0 04 08       	push   $0x804a070
 8048f89:	e8 32 f8 ff ff       	call   80487c0 <puts@plt>
 8048f8e:	e8 f8 02 00 00       	call   804928b <phase_defused>
 8048f93:	83 c4 18             	add    $0x18,%esp
 8048f96:	5b                   	pop    %ebx
 8048f97:	c3                   	ret    
 8048f98:	e8 8f 01 00 00       	call   804912c <explode_bomb>
 8048f9d:	eb c7                	jmp    8048f66 <secret_phase+0x25>

08048f9f <sig_handler>:
 8048f9f:	83 ec 18             	sub    $0x18,%esp
 8048fa2:	68 00 a1 04 08       	push   $0x804a100
 8048fa7:	e8 14 f8 ff ff       	call   80487c0 <puts@plt>
 8048fac:	c7 04 24 03 00 00 00 	movl   $0x3,(%esp)
 8048fb3:	e8 b8 f7 ff ff       	call   8048770 <sleep@plt>
 8048fb8:	83 c4 08             	add    $0x8,%esp
 8048fbb:	68 c2 a1 04 08       	push   $0x804a1c2
 8048fc0:	6a 01                	push   $0x1
 8048fc2:	e8 79 f8 ff ff       	call   8048840 <__printf_chk@plt>
 8048fc7:	83 c4 04             	add    $0x4,%esp
 8048fca:	ff 35 c4 c3 04 08    	pushl  0x804c3c4
 8048fd0:	e8 6b f7 ff ff       	call   8048740 <fflush@plt>
 8048fd5:	c7 04 24 01 00 00 00 	movl   $0x1,(%esp)
 8048fdc:	e8 8f f7 ff ff       	call   8048770 <sleep@plt>
 8048fe1:	c7 04 24 ca a1 04 08 	movl   $0x804a1ca,(%esp)
 8048fe8:	e8 d3 f7 ff ff       	call   80487c0 <puts@plt>
 8048fed:	c7 04 24 10 00 00 00 	movl   $0x10,(%esp)
 8048ff4:	e8 e7 f7 ff ff       	call   80487e0 <exit@plt>

08048ff9 <invalid_phase>:
 8048ff9:	83 ec 10             	sub    $0x10,%esp
 8048ffc:	ff 74 24 14          	pushl  0x14(%esp)
 8049000:	68 d2 a1 04 08       	push   $0x804a1d2
 8049005:	6a 01                	push   $0x1
 8049007:	e8 34 f8 ff ff       	call   8048840 <__printf_chk@plt>
 804900c:	c7 04 24 08 00 00 00 	movl   $0x8,(%esp)
 8049013:	e8 c8 f7 ff ff       	call   80487e0 <exit@plt>

08049018 <string_length>:
 8049018:	8b 54 24 04          	mov    0x4(%esp),%edx
 804901c:	80 3a 00             	cmpb   $0x0,(%edx)
 804901f:	74 10                	je     8049031 <string_length+0x19>
 8049021:	b8 00 00 00 00       	mov    $0x0,%eax
 8049026:	83 c0 01             	add    $0x1,%eax
 8049029:	80 3c 02 00          	cmpb   $0x0,(%edx,%eax,1)
 804902d:	75 f7                	jne    8049026 <string_length+0xe>
 804902f:	f3 c3                	repz ret 
 8049031:	b8 00 00 00 00       	mov    $0x0,%eax
 8049036:	c3                   	ret    

08049037 <strings_not_equal>:
 8049037:	57                   	push   %edi
 8049038:	56                   	push   %esi
 8049039:	53                   	push   %ebx
 804903a:	8b 5c 24 10          	mov    0x10(%esp),%ebx
 804903e:	8b 74 24 14          	mov    0x14(%esp),%esi
 8049042:	53                   	push   %ebx
 8049043:	e8 d0 ff ff ff       	call   8049018 <string_length>
 8049048:	89 c7                	mov    %eax,%edi
 804904a:	89 34 24             	mov    %esi,(%esp)
 804904d:	e8 c6 ff ff ff       	call   8049018 <string_length>
 8049052:	83 c4 04             	add    $0x4,%esp
 8049055:	ba 01 00 00 00       	mov    $0x1,%edx
 804905a:	39 c7                	cmp    %eax,%edi
 804905c:	74 06                	je     8049064 <strings_not_equal+0x2d>
 804905e:	89 d0                	mov    %edx,%eax
 8049060:	5b                   	pop    %ebx
 8049061:	5e                   	pop    %esi
 8049062:	5f                   	pop    %edi
 8049063:	c3                   	ret    
 8049064:	0f b6 03             	movzbl (%ebx),%eax
 8049067:	84 c0                	test   %al,%al
 8049069:	74 23                	je     804908e <strings_not_equal+0x57>
 804906b:	3a 06                	cmp    (%esi),%al
 804906d:	75 26                	jne    8049095 <strings_not_equal+0x5e>
 804906f:	83 c3 01             	add    $0x1,%ebx
 8049072:	83 c6 01             	add    $0x1,%esi
 8049075:	0f b6 03             	movzbl (%ebx),%eax
 8049078:	84 c0                	test   %al,%al
 804907a:	74 0b                	je     8049087 <strings_not_equal+0x50>
 804907c:	3a 06                	cmp    (%esi),%al
 804907e:	74 ef                	je     804906f <strings_not_equal+0x38>
 8049080:	ba 01 00 00 00       	mov    $0x1,%edx
 8049085:	eb d7                	jmp    804905e <strings_not_equal+0x27>
 8049087:	ba 00 00 00 00       	mov    $0x0,%edx
 804908c:	eb d0                	jmp    804905e <strings_not_equal+0x27>
 804908e:	ba 00 00 00 00       	mov    $0x0,%edx
 8049093:	eb c9                	jmp    804905e <strings_not_equal+0x27>
 8049095:	ba 01 00 00 00       	mov    $0x1,%edx
 804909a:	eb c2                	jmp    804905e <strings_not_equal+0x27>

0804909c <initialize_bomb>:
 804909c:	83 ec 14             	sub    $0x14,%esp
 804909f:	68 9f 8f 04 08       	push   $0x8048f9f
 80490a4:	6a 02                	push   $0x2
 80490a6:	e8 b5 f6 ff ff       	call   8048760 <signal@plt>
 80490ab:	83 c4 1c             	add    $0x1c,%esp
 80490ae:	c3                   	ret    

080490af <initialize_bomb_solve>:
 80490af:	f3 c3                	repz ret 

080490b1 <blank_line>:
 80490b1:	56                   	push   %esi
 80490b2:	53                   	push   %ebx
 80490b3:	83 ec 04             	sub    $0x4,%esp
 80490b6:	8b 74 24 10          	mov    0x10(%esp),%esi
 80490ba:	0f b6 1e             	movzbl (%esi),%ebx
 80490bd:	84 db                	test   %bl,%bl
 80490bf:	74 1b                	je     80490dc <blank_line+0x2b>
 80490c1:	e8 ea f7 ff ff       	call   80488b0 <__ctype_b_loc@plt>
 80490c6:	83 c6 01             	add    $0x1,%esi
 80490c9:	0f be db             	movsbl %bl,%ebx
 80490cc:	8b 00                	mov    (%eax),%eax
 80490ce:	f6 44 58 01 20       	testb  $0x20,0x1(%eax,%ebx,2)
 80490d3:	75 e5                	jne    80490ba <blank_line+0x9>
 80490d5:	b8 00 00 00 00       	mov    $0x0,%eax
 80490da:	eb 05                	jmp    80490e1 <blank_line+0x30>
 80490dc:	b8 01 00 00 00       	mov    $0x1,%eax
 80490e1:	83 c4 04             	add    $0x4,%esp
 80490e4:	5b                   	pop    %ebx
 80490e5:	5e                   	pop    %esi
 80490e6:	c3                   	ret    

080490e7 <skip>:
 80490e7:	53                   	push   %ebx
 80490e8:	83 ec 08             	sub    $0x8,%esp
 80490eb:	83 ec 04             	sub    $0x4,%esp
 80490ee:	ff 35 d0 c3 04 08    	pushl  0x804c3d0
 80490f4:	6a 50                	push   $0x50
 80490f6:	a1 cc c3 04 08       	mov    0x804c3cc,%eax
 80490fb:	8d 04 80             	lea    (%eax,%eax,4),%eax
 80490fe:	c1 e0 04             	shl    $0x4,%eax
 8049101:	05 e0 c3 04 08       	add    $0x804c3e0,%eax
 8049106:	50                   	push   %eax
 8049107:	e8 44 f6 ff ff       	call   8048750 <fgets@plt>
 804910c:	89 c3                	mov    %eax,%ebx
 804910e:	83 c4 10             	add    $0x10,%esp
 8049111:	85 c0                	test   %eax,%eax
 8049113:	74 10                	je     8049125 <skip+0x3e>
 8049115:	83 ec 0c             	sub    $0xc,%esp
 8049118:	50                   	push   %eax
 8049119:	e8 93 ff ff ff       	call   80490b1 <blank_line>
 804911e:	83 c4 10             	add    $0x10,%esp
 8049121:	85 c0                	test   %eax,%eax
 8049123:	75 c6                	jne    80490eb <skip+0x4>
 8049125:	89 d8                	mov    %ebx,%eax
 8049127:	83 c4 08             	add    $0x8,%esp
 804912a:	5b                   	pop    %ebx
 804912b:	c3                   	ret    

0804912c <explode_bomb>:
 804912c:	83 ec 18             	sub    $0x18,%esp
 804912f:	68 e3 a1 04 08       	push   $0x804a1e3
 8049134:	e8 87 f6 ff ff       	call   80487c0 <puts@plt>
 8049139:	c7 04 24 ec a1 04 08 	movl   $0x804a1ec,(%esp)
 8049140:	e8 7b f6 ff ff       	call   80487c0 <puts@plt>
 8049145:	c7 04 24 08 00 00 00 	movl   $0x8,(%esp)
 804914c:	e8 8f f6 ff ff       	call   80487e0 <exit@plt>

08049151 <read_six_numbers>:
 8049151:	83 ec 0c             	sub    $0xc,%esp
 8049154:	8b 44 24 14          	mov    0x14(%esp),%eax
 8049158:	8d 50 14             	lea    0x14(%eax),%edx
 804915b:	52                   	push   %edx
 804915c:	8d 50 10             	lea    0x10(%eax),%edx
 804915f:	52                   	push   %edx
 8049160:	8d 50 0c             	lea    0xc(%eax),%edx
 8049163:	52                   	push   %edx
 8049164:	8d 50 08             	lea    0x8(%eax),%edx
 8049167:	52                   	push   %edx
 8049168:	8d 50 04             	lea    0x4(%eax),%edx
 804916b:	52                   	push   %edx
 804916c:	50                   	push   %eax
 804916d:	68 03 a2 04 08       	push   $0x804a203
 8049172:	ff 74 24 2c          	pushl  0x2c(%esp)
 8049176:	e8 95 f6 ff ff       	call   8048810 <__isoc99_sscanf@plt>
 804917b:	83 c4 20             	add    $0x20,%esp
 804917e:	83 f8 05             	cmp    $0x5,%eax
 8049181:	7e 04                	jle    8049187 <read_six_numbers+0x36>
 8049183:	83 c4 0c             	add    $0xc,%esp
 8049186:	c3                   	ret    
 8049187:	e8 a0 ff ff ff       	call   804912c <explode_bomb>

0804918c <read_line>:
 804918c:	57                   	push   %edi
 804918d:	56                   	push   %esi
 804918e:	53                   	push   %ebx
 804918f:	e8 53 ff ff ff       	call   80490e7 <skip>
 8049194:	85 c0                	test   %eax,%eax
 8049196:	74 4b                	je     80491e3 <read_line+0x57>
 8049198:	8b 15 cc c3 04 08    	mov    0x804c3cc,%edx
 804919e:	8d 1c 92             	lea    (%edx,%edx,4),%ebx
 80491a1:	c1 e3 04             	shl    $0x4,%ebx
 80491a4:	81 c3 e0 c3 04 08    	add    $0x804c3e0,%ebx
 80491aa:	b8 00 00 00 00       	mov    $0x0,%eax
 80491af:	b9 ff ff ff ff       	mov    $0xffffffff,%ecx
 80491b4:	89 df                	mov    %ebx,%edi
 80491b6:	f2 ae                	repnz scas %es:(%edi),%al
 80491b8:	f7 d1                	not    %ecx
 80491ba:	83 e9 01             	sub    $0x1,%ecx
 80491bd:	83 f9 4e             	cmp    $0x4e,%ecx
 80491c0:	0f 8f 8d 00 00 00    	jg     8049253 <read_line+0xc7>
 80491c6:	8d 04 92             	lea    (%edx,%edx,4),%eax
 80491c9:	c1 e0 04             	shl    $0x4,%eax
 80491cc:	c6 84 01 df c3 04 08 	movb   $0x0,0x804c3df(%ecx,%eax,1)
 80491d3:	00 
 80491d4:	83 c2 01             	add    $0x1,%edx
 80491d7:	89 15 cc c3 04 08    	mov    %edx,0x804c3cc
 80491dd:	89 d8                	mov    %ebx,%eax
 80491df:	5b                   	pop    %ebx
 80491e0:	5e                   	pop    %esi
 80491e1:	5f                   	pop    %edi
 80491e2:	c3                   	ret    
 80491e3:	a1 c0 c3 04 08       	mov    0x804c3c0,%eax
 80491e8:	39 05 d0 c3 04 08    	cmp    %eax,0x804c3d0
 80491ee:	74 40                	je     8049230 <read_line+0xa4>
 80491f0:	83 ec 0c             	sub    $0xc,%esp
 80491f3:	68 33 a2 04 08       	push   $0x804a233
 80491f8:	e8 b3 f5 ff ff       	call   80487b0 <getenv@plt>
 80491fd:	83 c4 10             	add    $0x10,%esp
 8049200:	85 c0                	test   %eax,%eax
 8049202:	75 45                	jne    8049249 <read_line+0xbd>
 8049204:	a1 c0 c3 04 08       	mov    0x804c3c0,%eax
 8049209:	a3 d0 c3 04 08       	mov    %eax,0x804c3d0
 804920e:	e8 d4 fe ff ff       	call   80490e7 <skip>
 8049213:	85 c0                	test   %eax,%eax
 8049215:	75 81                	jne    8049198 <read_line+0xc>
 8049217:	83 ec 0c             	sub    $0xc,%esp
 804921a:	68 15 a2 04 08       	push   $0x804a215
 804921f:	e8 9c f5 ff ff       	call   80487c0 <puts@plt>
 8049224:	c7 04 24 00 00 00 00 	movl   $0x0,(%esp)
 804922b:	e8 b0 f5 ff ff       	call   80487e0 <exit@plt>
 8049230:	83 ec 0c             	sub    $0xc,%esp
 8049233:	68 15 a2 04 08       	push   $0x804a215
 8049238:	e8 83 f5 ff ff       	call   80487c0 <puts@plt>
 804923d:	c7 04 24 08 00 00 00 	movl   $0x8,(%esp)
 8049244:	e8 97 f5 ff ff       	call   80487e0 <exit@plt>
 8049249:	83 ec 0c             	sub    $0xc,%esp
 804924c:	6a 00                	push   $0x0
 804924e:	e8 8d f5 ff ff       	call   80487e0 <exit@plt>
 8049253:	83 ec 0c             	sub    $0xc,%esp
 8049256:	68 3e a2 04 08       	push   $0x804a23e
 804925b:	e8 60 f5 ff ff       	call   80487c0 <puts@plt>
 8049260:	a1 cc c3 04 08       	mov    0x804c3cc,%eax
 8049265:	8d 50 01             	lea    0x1(%eax),%edx
 8049268:	89 15 cc c3 04 08    	mov    %edx,0x804c3cc
 804926e:	6b c0 50             	imul   $0x50,%eax,%eax
 8049271:	05 e0 c3 04 08       	add    $0x804c3e0,%eax
 8049276:	ba 59 a2 04 08       	mov    $0x804a259,%edx
 804927b:	b9 04 00 00 00       	mov    $0x4,%ecx
 8049280:	89 c7                	mov    %eax,%edi
 8049282:	89 d6                	mov    %edx,%esi
 8049284:	f3 a5                	rep movsl %ds:(%esi),%es:(%edi)
 8049286:	e8 a1 fe ff ff       	call   804912c <explode_bomb>

0804928b <phase_defused>:
 804928b:	83 ec 6c             	sub    $0x6c,%esp
 804928e:	65 a1 14 00 00 00    	mov    %gs:0x14,%eax
 8049294:	89 44 24 5c          	mov    %eax,0x5c(%esp)
 8049298:	31 c0                	xor    %eax,%eax
 804929a:	83 3d cc c3 04 08 06 	cmpl   $0x6,0x804c3cc
 80492a1:	74 11                	je     80492b4 <phase_defused+0x29>
 80492a3:	8b 44 24 5c          	mov    0x5c(%esp),%eax
 80492a7:	65 33 05 14 00 00 00 	xor    %gs:0x14,%eax
 80492ae:	75 7b                	jne    804932b <phase_defused+0xa0>
 80492b0:	83 c4 6c             	add    $0x6c,%esp
 80492b3:	c3                   	ret    
 80492b4:	83 ec 0c             	sub    $0xc,%esp
 80492b7:	8d 44 24 18          	lea    0x18(%esp),%eax
 80492bb:	50                   	push   %eax
 80492bc:	8d 44 24 18          	lea    0x18(%esp),%eax
 80492c0:	50                   	push   %eax
 80492c1:	8d 44 24 18          	lea    0x18(%esp),%eax
 80492c5:	50                   	push   %eax
 80492c6:	68 69 a2 04 08       	push   $0x804a269
 80492cb:	68 d0 c4 04 08       	push   $0x804c4d0
 80492d0:	e8 3b f5 ff ff       	call   8048810 <__isoc99_sscanf@plt>
 80492d5:	83 c4 20             	add    $0x20,%esp
 80492d8:	83 f8 03             	cmp    $0x3,%eax
 80492db:	74 12                	je     80492ef <phase_defused+0x64>
 80492dd:	83 ec 0c             	sub    $0xc,%esp
 80492e0:	68 98 a1 04 08       	push   $0x804a198
 80492e5:	e8 d6 f4 ff ff       	call   80487c0 <puts@plt>
 80492ea:	83 c4 10             	add    $0x10,%esp
 80492ed:	eb b4                	jmp    80492a3 <phase_defused+0x18>
 80492ef:	83 ec 08             	sub    $0x8,%esp
 80492f2:	68 72 a2 04 08       	push   $0x804a272
 80492f7:	8d 44 24 18          	lea    0x18(%esp),%eax
 80492fb:	50                   	push   %eax
 80492fc:	e8 36 fd ff ff       	call   8049037 <strings_not_equal>
 8049301:	83 c4 10             	add    $0x10,%esp
 8049304:	85 c0                	test   %eax,%eax
 8049306:	75 d5                	jne    80492dd <phase_defused+0x52>
 8049308:	83 ec 0c             	sub    $0xc,%esp
 804930b:	68 38 a1 04 08       	push   $0x804a138
 8049310:	e8 ab f4 ff ff       	call   80487c0 <puts@plt>
 8049315:	c7 04 24 60 a1 04 08 	movl   $0x804a160,(%esp)
 804931c:	e8 9f f4 ff ff       	call   80487c0 <puts@plt>
 8049321:	e8 1b fc ff ff       	call   8048f41 <secret_phase>
 8049326:	83 c4 10             	add    $0x10,%esp
 8049329:	eb b2                	jmp    80492dd <phase_defused+0x52>
 804932b:	e8 60 f4 ff ff       	call   8048790 <__stack_chk_fail@plt>

08049330 <sigalrm_handler>:
 8049330:	83 ec 0c             	sub    $0xc,%esp
 8049333:	6a 00                	push   $0x0
 8049335:	68 c8 a2 04 08       	push   $0x804a2c8
 804933a:	6a 01                	push   $0x1
 804933c:	ff 35 a0 c3 04 08    	pushl  0x804c3a0
 8049342:	e8 19 f5 ff ff       	call   8048860 <__fprintf_chk@plt>
 8049347:	c7 04 24 01 00 00 00 	movl   $0x1,(%esp)
 804934e:	e8 8d f4 ff ff       	call   80487e0 <exit@plt>

08049353 <rio_readlineb>:
 8049353:	55                   	push   %ebp
 8049354:	57                   	push   %edi
 8049355:	56                   	push   %esi
 8049356:	53                   	push   %ebx
 8049357:	83 ec 1c             	sub    $0x1c,%esp
 804935a:	83 f9 01             	cmp    $0x1,%ecx
 804935d:	76 79                	jbe    80493d8 <rio_readlineb+0x85>
 804935f:	89 d7                	mov    %edx,%edi
 8049361:	89 c3                	mov    %eax,%ebx
 8049363:	89 4c 24 0c          	mov    %ecx,0xc(%esp)
 8049367:	bd 01 00 00 00       	mov    $0x1,%ebp
 804936c:	8d 70 0c             	lea    0xc(%eax),%esi
 804936f:	eb 0a                	jmp    804937b <rio_readlineb+0x28>
 8049371:	e8 ba f4 ff ff       	call   8048830 <__errno_location@plt>
 8049376:	83 38 04             	cmpl   $0x4,(%eax)
 8049379:	75 66                	jne    80493e1 <rio_readlineb+0x8e>
 804937b:	8b 43 04             	mov    0x4(%ebx),%eax
 804937e:	85 c0                	test   %eax,%eax
 8049380:	7f 23                	jg     80493a5 <rio_readlineb+0x52>
 8049382:	83 ec 04             	sub    $0x4,%esp
 8049385:	68 00 20 00 00       	push   $0x2000
 804938a:	56                   	push   %esi
 804938b:	ff 33                	pushl  (%ebx)
 804938d:	e8 9e f3 ff ff       	call   8048730 <read@plt>
 8049392:	89 43 04             	mov    %eax,0x4(%ebx)
 8049395:	83 c4 10             	add    $0x10,%esp
 8049398:	85 c0                	test   %eax,%eax
 804939a:	78 d5                	js     8049371 <rio_readlineb+0x1e>
 804939c:	85 c0                	test   %eax,%eax
 804939e:	74 48                	je     80493e8 <rio_readlineb+0x95>
 80493a0:	89 73 08             	mov    %esi,0x8(%ebx)
 80493a3:	eb d6                	jmp    804937b <rio_readlineb+0x28>
 80493a5:	8b 4b 08             	mov    0x8(%ebx),%ecx
 80493a8:	0f b6 11             	movzbl (%ecx),%edx
 80493ab:	83 c1 01             	add    $0x1,%ecx
 80493ae:	89 4b 08             	mov    %ecx,0x8(%ebx)
 80493b1:	83 e8 01             	sub    $0x1,%eax
 80493b4:	89 43 04             	mov    %eax,0x4(%ebx)
 80493b7:	83 c7 01             	add    $0x1,%edi
 80493ba:	88 57 ff             	mov    %dl,-0x1(%edi)
 80493bd:	80 fa 0a             	cmp    $0xa,%dl
 80493c0:	74 09                	je     80493cb <rio_readlineb+0x78>
 80493c2:	83 c5 01             	add    $0x1,%ebp
 80493c5:	3b 6c 24 0c          	cmp    0xc(%esp),%ebp
 80493c9:	75 b0                	jne    804937b <rio_readlineb+0x28>
 80493cb:	c6 07 00             	movb   $0x0,(%edi)
 80493ce:	89 e8                	mov    %ebp,%eax
 80493d0:	83 c4 1c             	add    $0x1c,%esp
 80493d3:	5b                   	pop    %ebx
 80493d4:	5e                   	pop    %esi
 80493d5:	5f                   	pop    %edi
 80493d6:	5d                   	pop    %ebp
 80493d7:	c3                   	ret    
 80493d8:	89 d7                	mov    %edx,%edi
 80493da:	bd 01 00 00 00       	mov    $0x1,%ebp
 80493df:	eb ea                	jmp    80493cb <rio_readlineb+0x78>
 80493e1:	b8 ff ff ff ff       	mov    $0xffffffff,%eax
 80493e6:	eb 05                	jmp    80493ed <rio_readlineb+0x9a>
 80493e8:	b8 00 00 00 00       	mov    $0x0,%eax
 80493ed:	85 c0                	test   %eax,%eax
 80493ef:	75 0c                	jne    80493fd <rio_readlineb+0xaa>
 80493f1:	83 fd 01             	cmp    $0x1,%ebp
 80493f4:	75 d5                	jne    80493cb <rio_readlineb+0x78>
 80493f6:	bd 00 00 00 00       	mov    $0x0,%ebp
 80493fb:	eb d1                	jmp    80493ce <rio_readlineb+0x7b>
 80493fd:	bd ff ff ff ff       	mov    $0xffffffff,%ebp
 8049402:	eb ca                	jmp    80493ce <rio_readlineb+0x7b>

08049404 <submitr>:
 8049404:	55                   	push   %ebp
 8049405:	57                   	push   %edi
 8049406:	56                   	push   %esi
 8049407:	53                   	push   %ebx
 8049408:	81 ec 60 a0 00 00    	sub    $0xa060,%esp
 804940e:	8b 9c 24 74 a0 00 00 	mov    0xa074(%esp),%ebx
 8049415:	8b 84 24 7c a0 00 00 	mov    0xa07c(%esp),%eax
 804941c:	89 44 24 0c          	mov    %eax,0xc(%esp)
 8049420:	8b 84 24 80 a0 00 00 	mov    0xa080(%esp),%eax
 8049427:	89 44 24 10          	mov    %eax,0x10(%esp)
 804942b:	8b 84 24 84 a0 00 00 	mov    0xa084(%esp),%eax
 8049432:	89 44 24 14          	mov    %eax,0x14(%esp)
 8049436:	8b b4 24 88 a0 00 00 	mov    0xa088(%esp),%esi
 804943d:	8b 84 24 8c a0 00 00 	mov    0xa08c(%esp),%eax
 8049444:	89 44 24 18          	mov    %eax,0x18(%esp)
 8049448:	65 a1 14 00 00 00    	mov    %gs:0x14,%eax
 804944e:	89 84 24 50 a0 00 00 	mov    %eax,0xa050(%esp)
 8049455:	31 c0                	xor    %eax,%eax
 8049457:	c7 44 24 30 00 00 00 	movl   $0x0,0x30(%esp)
 804945e:	00 
 804945f:	6a 00                	push   $0x0
 8049461:	6a 01                	push   $0x1
 8049463:	6a 02                	push   $0x2
 8049465:	e8 e6 f3 ff ff       	call   8048850 <socket@plt>
 804946a:	83 c4 10             	add    $0x10,%esp
 804946d:	85 c0                	test   %eax,%eax
 804946f:	0f 88 04 01 00 00    	js     8049579 <submitr+0x175>
 8049475:	89 c5                	mov    %eax,%ebp
 8049477:	83 ec 0c             	sub    $0xc,%esp
 804947a:	53                   	push   %ebx
 804947b:	e8 f0 f3 ff ff       	call   8048870 <gethostbyname@plt>
 8049480:	83 c4 10             	add    $0x10,%esp
 8049483:	85 c0                	test   %eax,%eax
 8049485:	0f 84 40 01 00 00    	je     80495cb <submitr+0x1c7>
 804948b:	8d 5c 24 30          	lea    0x30(%esp),%ebx
 804948f:	c7 44 24 30 00 00 00 	movl   $0x0,0x30(%esp)
 8049496:	00 
 8049497:	c7 44 24 34 00 00 00 	movl   $0x0,0x34(%esp)
 804949e:	00 
 804949f:	c7 44 24 38 00 00 00 	movl   $0x0,0x38(%esp)
 80494a6:	00 
 80494a7:	c7 44 24 3c 00 00 00 	movl   $0x0,0x3c(%esp)
 80494ae:	00 
 80494af:	66 c7 44 24 30 02 00 	movw   $0x2,0x30(%esp)
 80494b6:	6a 0c                	push   $0xc
 80494b8:	ff 70 0c             	pushl  0xc(%eax)
 80494bb:	8b 40 10             	mov    0x10(%eax),%eax
 80494be:	ff 30                	pushl  (%eax)
 80494c0:	8d 44 24 40          	lea    0x40(%esp),%eax
 80494c4:	50                   	push   %eax
 80494c5:	e8 06 f3 ff ff       	call   80487d0 <__memmove_chk@plt>
 80494ca:	0f b7 84 24 84 a0 00 	movzwl 0xa084(%esp),%eax
 80494d1:	00 
 80494d2:	66 c1 c8 08          	ror    $0x8,%ax
 80494d6:	66 89 44 24 42       	mov    %ax,0x42(%esp)
 80494db:	83 c4 0c             	add    $0xc,%esp
 80494de:	6a 10                	push   $0x10
 80494e0:	53                   	push   %ebx
 80494e1:	55                   	push   %ebp
 80494e2:	e8 a9 f3 ff ff       	call   8048890 <connect@plt>
 80494e7:	83 c4 10             	add    $0x10,%esp
 80494ea:	85 c0                	test   %eax,%eax
 80494ec:	0f 88 49 01 00 00    	js     804963b <submitr+0x237>
 80494f2:	ba ff ff ff ff       	mov    $0xffffffff,%edx
 80494f7:	b8 00 00 00 00       	mov    $0x0,%eax
 80494fc:	89 d1                	mov    %edx,%ecx
 80494fe:	89 f7                	mov    %esi,%edi
 8049500:	f2 ae                	repnz scas %es:(%edi),%al
 8049502:	89 cb                	mov    %ecx,%ebx
 8049504:	f7 d3                	not    %ebx
 8049506:	89 d1                	mov    %edx,%ecx
 8049508:	8b 7c 24 08          	mov    0x8(%esp),%edi
 804950c:	f2 ae                	repnz scas %es:(%edi),%al
 804950e:	89 4c 24 18          	mov    %ecx,0x18(%esp)
 8049512:	89 d1                	mov    %edx,%ecx
 8049514:	8b 7c 24 0c          	mov    0xc(%esp),%edi
 8049518:	f2 ae                	repnz scas %es:(%edi),%al
 804951a:	89 cf                	mov    %ecx,%edi
 804951c:	f7 d7                	not    %edi
 804951e:	89 7c 24 1c          	mov    %edi,0x1c(%esp)
 8049522:	89 d1                	mov    %edx,%ecx
 8049524:	8b 7c 24 10          	mov    0x10(%esp),%edi
 8049528:	f2 ae                	repnz scas %es:(%edi),%al
 804952a:	8b 54 24 1c          	mov    0x1c(%esp),%edx
 804952e:	2b 54 24 18          	sub    0x18(%esp),%edx
 8049532:	29 ca                	sub    %ecx,%edx
 8049534:	8d 44 5b fd          	lea    -0x3(%ebx,%ebx,2),%eax
 8049538:	8d 44 02 7b          	lea    0x7b(%edx,%eax,1),%eax
 804953c:	3d 00 20 00 00       	cmp    $0x2000,%eax
 8049541:	0f 87 56 01 00 00    	ja     804969d <submitr+0x299>
 8049547:	8d 94 24 4c 40 00 00 	lea    0x404c(%esp),%edx
 804954e:	b9 00 08 00 00       	mov    $0x800,%ecx
 8049553:	b8 00 00 00 00       	mov    $0x0,%eax
 8049558:	89 d7                	mov    %edx,%edi
 804955a:	f3 ab                	rep stos %eax,%es:(%edi)
 804955c:	b9 ff ff ff ff       	mov    $0xffffffff,%ecx
 8049561:	89 f7                	mov    %esi,%edi
 8049563:	f2 ae                	repnz scas %es:(%edi),%al
 8049565:	f7 d1                	not    %ecx
 8049567:	89 cb                	mov    %ecx,%ebx
 8049569:	83 eb 01             	sub    $0x1,%ebx
 804956c:	0f 84 07 06 00 00    	je     8049b79 <submitr+0x775>
 8049572:	89 d7                	mov    %edx,%edi
 8049574:	e9 b0 01 00 00       	jmp    8049729 <submitr+0x325>
 8049579:	8b 44 24 14          	mov    0x14(%esp),%eax
 804957d:	c7 00 45 72 72 6f    	movl   $0x6f727245,(%eax)
 8049583:	c7 40 04 72 3a 20 43 	movl   $0x43203a72,0x4(%eax)
 804958a:	c7 40 08 6c 69 65 6e 	movl   $0x6e65696c,0x8(%eax)
 8049591:	c7 40 0c 74 20 75 6e 	movl   $0x6e752074,0xc(%eax)
 8049598:	c7 40 10 61 62 6c 65 	movl   $0x656c6261,0x10(%eax)
 804959f:	c7 40 14 20 74 6f 20 	movl   $0x206f7420,0x14(%eax)
 80495a6:	c7 40 18 63 72 65 61 	movl   $0x61657263,0x18(%eax)
 80495ad:	c7 40 1c 74 65 20 73 	movl   $0x73206574,0x1c(%eax)
 80495b4:	c7 40 20 6f 63 6b 65 	movl   $0x656b636f,0x20(%eax)
 80495bb:	66 c7 40 24 74 00    	movw   $0x74,0x24(%eax)
 80495c1:	b8 ff ff ff ff       	mov    $0xffffffff,%eax
 80495c6:	e9 d0 04 00 00       	jmp    8049a9b <submitr+0x697>
 80495cb:	8b 44 24 14          	mov    0x14(%esp),%eax
 80495cf:	c7 00 45 72 72 6f    	movl   $0x6f727245,(%eax)
 80495d5:	c7 40 04 72 3a 20 44 	movl   $0x44203a72,0x4(%eax)
 80495dc:	c7 40 08 4e 53 20 69 	movl   $0x6920534e,0x8(%eax)
 80495e3:	c7 40 0c 73 20 75 6e 	movl   $0x6e752073,0xc(%eax)
 80495ea:	c7 40 10 61 62 6c 65 	movl   $0x656c6261,0x10(%eax)
 80495f1:	c7 40 14 20 74 6f 20 	movl   $0x206f7420,0x14(%eax)
 80495f8:	c7 40 18 72 65 73 6f 	movl   $0x6f736572,0x18(%eax)
 80495ff:	c7 40 1c 6c 76 65 20 	movl   $0x2065766c,0x1c(%eax)
 8049606:	c7 40 20 73 65 72 76 	movl   $0x76726573,0x20(%eax)
 804960d:	c7 40 24 65 72 20 61 	movl   $0x61207265,0x24(%eax)
 8049614:	c7 40 28 64 64 72 65 	movl   $0x65726464,0x28(%eax)
 804961b:	66 c7 40 2c 73 73    	movw   $0x7373,0x2c(%eax)
 8049621:	c6 40 2e 00          	movb   $0x0,0x2e(%eax)
 8049625:	83 ec 0c             	sub    $0xc,%esp
 8049628:	55                   	push   %ebp
 8049629:	e8 72 f2 ff ff       	call   80488a0 <close@plt>
 804962e:	83 c4 10             	add    $0x10,%esp
 8049631:	b8 ff ff ff ff       	mov    $0xffffffff,%eax
 8049636:	e9 60 04 00 00       	jmp    8049a9b <submitr+0x697>
 804963b:	8b 44 24 14          	mov    0x14(%esp),%eax
 804963f:	c7 00 45 72 72 6f    	movl   $0x6f727245,(%eax)
 8049645:	c7 40 04 72 3a 20 55 	movl   $0x55203a72,0x4(%eax)
 804964c:	c7 40 08 6e 61 62 6c 	movl   $0x6c62616e,0x8(%eax)
 8049653:	c7 40 0c 65 20 74 6f 	movl   $0x6f742065,0xc(%eax)
 804965a:	c7 40 10 20 63 6f 6e 	movl   $0x6e6f6320,0x10(%eax)
 8049661:	c7 40 14 6e 65 63 74 	movl   $0x7463656e,0x14(%eax)
 8049668:	c7 40 18 20 74 6f 20 	movl   $0x206f7420,0x18(%eax)
 804966f:	c7 40 1c 74 68 65 20 	movl   $0x20656874,0x1c(%eax)
 8049676:	c7 40 20 73 65 72 76 	movl   $0x76726573,0x20(%eax)
 804967d:	66 c7 40 24 65 72    	movw   $0x7265,0x24(%eax)
 8049683:	c6 40 26 00          	movb   $0x0,0x26(%eax)
 8049687:	83 ec 0c             	sub    $0xc,%esp
 804968a:	55                   	push   %ebp
 804968b:	e8 10 f2 ff ff       	call   80488a0 <close@plt>
 8049690:	83 c4 10             	add    $0x10,%esp
 8049693:	b8 ff ff ff ff       	mov    $0xffffffff,%eax
 8049698:	e9 fe 03 00 00       	jmp    8049a9b <submitr+0x697>
 804969d:	8b 44 24 14          	mov    0x14(%esp),%eax
 80496a1:	c7 00 45 72 72 6f    	movl   $0x6f727245,(%eax)
 80496a7:	c7 40 04 72 3a 20 52 	movl   $0x52203a72,0x4(%eax)
 80496ae:	c7 40 08 65 73 75 6c 	movl   $0x6c757365,0x8(%eax)
 80496b5:	c7 40 0c 74 20 73 74 	movl   $0x74732074,0xc(%eax)
 80496bc:	c7 40 10 72 69 6e 67 	movl   $0x676e6972,0x10(%eax)
 80496c3:	c7 40 14 20 74 6f 6f 	movl   $0x6f6f7420,0x14(%eax)
 80496ca:	c7 40 18 20 6c 61 72 	movl   $0x72616c20,0x18(%eax)
 80496d1:	c7 40 1c 67 65 2e 20 	movl   $0x202e6567,0x1c(%eax)
 80496d8:	c7 40 20 49 6e 63 72 	movl   $0x72636e49,0x20(%eax)
 80496df:	c7 40 24 65 61 73 65 	movl   $0x65736165,0x24(%eax)
 80496e6:	c7 40 28 20 53 55 42 	movl   $0x42555320,0x28(%eax)
 80496ed:	c7 40 2c 4d 49 54 52 	movl   $0x5254494d,0x2c(%eax)
 80496f4:	c7 40 30 5f 4d 41 58 	movl   $0x58414d5f,0x30(%eax)
 80496fb:	c7 40 34 42 55 46 00 	movl   $0x465542,0x34(%eax)
 8049702:	83 ec 0c             	sub    $0xc,%esp
 8049705:	55                   	push   %ebp
 8049706:	e8 95 f1 ff ff       	call   80488a0 <close@plt>
 804970b:	83 c4 10             	add    $0x10,%esp
 804970e:	b8 ff ff ff ff       	mov    $0xffffffff,%eax
 8049713:	e9 83 03 00 00       	jmp    8049a9b <submitr+0x697>
 8049718:	88 17                	mov    %dl,(%edi)
 804971a:	8d 7f 01             	lea    0x1(%edi),%edi
 804971d:	83 c6 01             	add    $0x1,%esi
 8049720:	83 eb 01             	sub    $0x1,%ebx
 8049723:	0f 84 50 04 00 00    	je     8049b79 <submitr+0x775>
 8049729:	0f b6 16             	movzbl (%esi),%edx
 804972c:	8d 4a d6             	lea    -0x2a(%edx),%ecx
 804972f:	b8 01 00 00 00       	mov    $0x1,%eax
 8049734:	80 f9 0f             	cmp    $0xf,%cl
 8049737:	77 0d                	ja     8049746 <submitr+0x342>
 8049739:	b8 d9 ff 00 00       	mov    $0xffd9,%eax
 804973e:	d3 e8                	shr    %cl,%eax
 8049740:	83 f0 01             	xor    $0x1,%eax
 8049743:	83 e0 01             	and    $0x1,%eax
 8049746:	80 fa 5f             	cmp    $0x5f,%dl
 8049749:	74 cd                	je     8049718 <submitr+0x314>
 804974b:	84 c0                	test   %al,%al
 804974d:	74 c9                	je     8049718 <submitr+0x314>
 804974f:	89 d0                	mov    %edx,%eax
 8049751:	83 e0 df             	and    $0xffffffdf,%eax
 8049754:	83 e8 41             	sub    $0x41,%eax
 8049757:	3c 19                	cmp    $0x19,%al
 8049759:	76 bd                	jbe    8049718 <submitr+0x314>
 804975b:	80 fa 20             	cmp    $0x20,%dl
 804975e:	74 58                	je     80497b8 <submitr+0x3b4>
 8049760:	8d 42 e0             	lea    -0x20(%edx),%eax
 8049763:	3c 5f                	cmp    $0x5f,%al
 8049765:	76 09                	jbe    8049770 <submitr+0x36c>
 8049767:	80 fa 09             	cmp    $0x9,%dl
 804976a:	0f 85 c5 03 00 00    	jne    8049b35 <submitr+0x731>
 8049770:	83 ec 0c             	sub    $0xc,%esp
 8049773:	0f b6 d2             	movzbl %dl,%edx
 8049776:	52                   	push   %edx
 8049777:	68 d4 a3 04 08       	push   $0x804a3d4
 804977c:	6a 08                	push   $0x8
 804977e:	6a 01                	push   $0x1
 8049780:	8d 84 24 68 80 00 00 	lea    0x8068(%esp),%eax
 8049787:	50                   	push   %eax
 8049788:	e8 33 f1 ff ff       	call   80488c0 <__sprintf_chk@plt>
 804978d:	0f b6 84 24 6c 80 00 	movzbl 0x806c(%esp),%eax
 8049794:	00 
 8049795:	88 07                	mov    %al,(%edi)
 8049797:	0f b6 84 24 6d 80 00 	movzbl 0x806d(%esp),%eax
 804979e:	00 
 804979f:	88 47 01             	mov    %al,0x1(%edi)
 80497a2:	0f b6 84 24 6e 80 00 	movzbl 0x806e(%esp),%eax
 80497a9:	00 
 80497aa:	88 47 02             	mov    %al,0x2(%edi)
 80497ad:	83 c4 20             	add    $0x20,%esp
 80497b0:	8d 7f 03             	lea    0x3(%edi),%edi
 80497b3:	e9 65 ff ff ff       	jmp    804971d <submitr+0x319>
 80497b8:	c6 07 2b             	movb   $0x2b,(%edi)
 80497bb:	8d 7f 01             	lea    0x1(%edi),%edi
 80497be:	e9 5a ff ff ff       	jmp    804971d <submitr+0x319>
 80497c3:	01 c6                	add    %eax,%esi
 80497c5:	29 c3                	sub    %eax,%ebx
 80497c7:	74 24                	je     80497ed <submitr+0x3e9>
 80497c9:	83 ec 04             	sub    $0x4,%esp
 80497cc:	53                   	push   %ebx
 80497cd:	56                   	push   %esi
 80497ce:	55                   	push   %ebp
 80497cf:	e8 2c f0 ff ff       	call   8048800 <write@plt>
 80497d4:	83 c4 10             	add    $0x10,%esp
 80497d7:	85 c0                	test   %eax,%eax
 80497d9:	7f e8                	jg     80497c3 <submitr+0x3bf>
 80497db:	e8 50 f0 ff ff       	call   8048830 <__errno_location@plt>
 80497e0:	83 38 04             	cmpl   $0x4,(%eax)
 80497e3:	0f 85 b0 00 00 00    	jne    8049899 <submitr+0x495>
 80497e9:	89 f8                	mov    %edi,%eax
 80497eb:	eb d6                	jmp    80497c3 <submitr+0x3bf>
 80497ed:	83 7c 24 08 00       	cmpl   $0x0,0x8(%esp)
 80497f2:	0f 88 a1 00 00 00    	js     8049899 <submitr+0x495>
 80497f8:	89 6c 24 40          	mov    %ebp,0x40(%esp)
 80497fc:	c7 44 24 44 00 00 00 	movl   $0x0,0x44(%esp)
 8049803:	00 
 8049804:	8d 44 24 4c          	lea    0x4c(%esp),%eax
 8049808:	89 44 24 48          	mov    %eax,0x48(%esp)
 804980c:	b9 00 20 00 00       	mov    $0x2000,%ecx
 8049811:	8d 94 24 4c 20 00 00 	lea    0x204c(%esp),%edx
 8049818:	8d 44 24 40          	lea    0x40(%esp),%eax
 804981c:	e8 32 fb ff ff       	call   8049353 <rio_readlineb>
 8049821:	85 c0                	test   %eax,%eax
 8049823:	0f 8e d6 00 00 00    	jle    80498ff <submitr+0x4fb>
 8049829:	83 ec 0c             	sub    $0xc,%esp
 804982c:	8d 84 24 58 80 00 00 	lea    0x8058(%esp),%eax
 8049833:	50                   	push   %eax
 8049834:	8d 44 24 3c          	lea    0x3c(%esp),%eax
 8049838:	50                   	push   %eax
 8049839:	8d 84 24 60 60 00 00 	lea    0x6060(%esp),%eax
 8049840:	50                   	push   %eax
 8049841:	68 db a3 04 08       	push   $0x804a3db
 8049846:	8d 84 24 68 20 00 00 	lea    0x2068(%esp),%eax
 804984d:	50                   	push   %eax
 804984e:	e8 bd ef ff ff       	call   8048810 <__isoc99_sscanf@plt>
 8049853:	8b 44 24 4c          	mov    0x4c(%esp),%eax
 8049857:	83 c4 20             	add    $0x20,%esp
 804985a:	3d c8 00 00 00       	cmp    $0xc8,%eax
 804985f:	0f 84 a6 01 00 00    	je     8049a0b <submitr+0x607>
 8049865:	83 ec 08             	sub    $0x8,%esp
 8049868:	8d 94 24 54 80 00 00 	lea    0x8054(%esp),%edx
 804986f:	52                   	push   %edx
 8049870:	50                   	push   %eax
 8049871:	68 ec a2 04 08       	push   $0x804a2ec
 8049876:	6a ff                	push   $0xffffffff
 8049878:	6a 01                	push   $0x1
 804987a:	ff 74 24 30          	pushl  0x30(%esp)
 804987e:	e8 3d f0 ff ff       	call   80488c0 <__sprintf_chk@plt>
 8049883:	83 c4 14             	add    $0x14,%esp
 8049886:	55                   	push   %ebp
 8049887:	e8 14 f0 ff ff       	call   80488a0 <close@plt>
 804988c:	83 c4 10             	add    $0x10,%esp
 804988f:	b8 ff ff ff ff       	mov    $0xffffffff,%eax
 8049894:	e9 02 02 00 00       	jmp    8049a9b <submitr+0x697>
 8049899:	8b 44 24 14          	mov    0x14(%esp),%eax
 804989d:	c7 00 45 72 72 6f    	movl   $0x6f727245,(%eax)
 80498a3:	c7 40 04 72 3a 20 43 	movl   $0x43203a72,0x4(%eax)
 80498aa:	c7 40 08 6c 69 65 6e 	movl   $0x6e65696c,0x8(%eax)
 80498b1:	c7 40 0c 74 20 75 6e 	movl   $0x6e752074,0xc(%eax)
 80498b8:	c7 40 10 61 62 6c 65 	movl   $0x656c6261,0x10(%eax)
 80498bf:	c7 40 14 20 74 6f 20 	movl   $0x206f7420,0x14(%eax)
 80498c6:	c7 40 18 77 72 69 74 	movl   $0x74697277,0x18(%eax)
 80498cd:	c7 40 1c 65 20 74 6f 	movl   $0x6f742065,0x1c(%eax)
 80498d4:	c7 40 20 20 74 68 65 	movl   $0x65687420,0x20(%eax)
 80498db:	c7 40 24 20 73 65 72 	movl   $0x72657320,0x24(%eax)
 80498e2:	c7 40 28 76 65 72 00 	movl   $0x726576,0x28(%eax)
 80498e9:	83 ec 0c             	sub    $0xc,%esp
 80498ec:	55                   	push   %ebp
 80498ed:	e8 ae ef ff ff       	call   80488a0 <close@plt>
 80498f2:	83 c4 10             	add    $0x10,%esp
 80498f5:	b8 ff ff ff ff       	mov    $0xffffffff,%eax
 80498fa:	e9 9c 01 00 00       	jmp    8049a9b <submitr+0x697>
 80498ff:	8b 44 24 14          	mov    0x14(%esp),%eax
 8049903:	c7 00 45 72 72 6f    	movl   $0x6f727245,(%eax)
 8049909:	c7 40 04 72 3a 20 43 	movl   $0x43203a72,0x4(%eax)
 8049910:	c7 40 08 6c 69 65 6e 	movl   $0x6e65696c,0x8(%eax)
 8049917:	c7 40 0c 74 20 75 6e 	movl   $0x6e752074,0xc(%eax)
 804991e:	c7 40 10 61 62 6c 65 	movl   $0x656c6261,0x10(%eax)
 8049925:	c7 40 14 20 74 6f 20 	movl   $0x206f7420,0x14(%eax)
 804992c:	c7 40 18 72 65 61 64 	movl   $0x64616572,0x18(%eax)
 8049933:	c7 40 1c 20 66 69 72 	movl   $0x72696620,0x1c(%eax)
 804993a:	c7 40 20 73 74 20 68 	movl   $0x68207473,0x20(%eax)
 8049941:	c7 40 24 65 61 64 65 	movl   $0x65646165,0x24(%eax)
 8049948:	c7 40 28 72 20 66 72 	movl   $0x72662072,0x28(%eax)
 804994f:	c7 40 2c 6f 6d 20 73 	movl   $0x73206d6f,0x2c(%eax)
 8049956:	c7 40 30 65 72 76 65 	movl   $0x65767265,0x30(%eax)
 804995d:	66 c7 40 34 72 00    	movw   $0x72,0x34(%eax)
 8049963:	83 ec 0c             	sub    $0xc,%esp
 8049966:	55                   	push   %ebp
 8049967:	e8 34 ef ff ff       	call   80488a0 <close@plt>
 804996c:	83 c4 10             	add    $0x10,%esp
 804996f:	b8 ff ff ff ff       	mov    $0xffffffff,%eax
 8049974:	e9 22 01 00 00       	jmp    8049a9b <submitr+0x697>
 8049979:	8b 44 24 14          	mov    0x14(%esp),%eax
 804997d:	c7 00 45 72 72 6f    	movl   $0x6f727245,(%eax)
 8049983:	c7 40 04 72 3a 20 43 	movl   $0x43203a72,0x4(%eax)
 804998a:	c7 40 08 6c 69 65 6e 	movl   $0x6e65696c,0x8(%eax)
 8049991:	c7 40 0c 74 20 75 6e 	movl   $0x6e752074,0xc(%eax)
 8049998:	c7 40 10 61 62 6c 65 	movl   $0x656c6261,0x10(%eax)
 804999f:	c7 40 14 20 74 6f 20 	movl   $0x206f7420,0x14(%eax)
 80499a6:	c7 40 18 72 65 61 64 	movl   $0x64616572,0x18(%eax)
 80499ad:	c7 40 1c 20 68 65 61 	movl   $0x61656820,0x1c(%eax)
 80499b4:	c7 40 20 64 65 72 73 	movl   $0x73726564,0x20(%eax)
 80499bb:	c7 40 24 20 66 72 6f 	movl   $0x6f726620,0x24(%eax)
 80499c2:	c7 40 28 6d 20 73 65 	movl   $0x6573206d,0x28(%eax)
 80499c9:	c7 40 2c 72 76 65 72 	movl   $0x72657672,0x2c(%eax)
 80499d0:	c6 40 30 00          	movb   $0x0,0x30(%eax)
 80499d4:	83 ec 0c             	sub    $0xc,%esp
 80499d7:	55                   	push   %ebp
 80499d8:	e8 c3 ee ff ff       	call   80488a0 <close@plt>
 80499dd:	83 c4 10             	add    $0x10,%esp
 80499e0:	b8 ff ff ff ff       	mov    $0xffffffff,%eax
 80499e5:	e9 b1 00 00 00       	jmp    8049a9b <submitr+0x697>
 80499ea:	85 c0                	test   %eax,%eax
 80499ec:	74 4b                	je     8049a39 <submitr+0x635>
 80499ee:	b9 00 20 00 00       	mov    $0x2000,%ecx
 80499f3:	8d 94 24 4c 20 00 00 	lea    0x204c(%esp),%edx
 80499fa:	8d 44 24 40          	lea    0x40(%esp),%eax
 80499fe:	e8 50 f9 ff ff       	call   8049353 <rio_readlineb>
 8049a03:	85 c0                	test   %eax,%eax
 8049a05:	0f 8e 6e ff ff ff    	jle    8049979 <submitr+0x575>
 8049a0b:	0f b6 94 24 4c 20 00 	movzbl 0x204c(%esp),%edx
 8049a12:	00 
 8049a13:	b8 0d 00 00 00       	mov    $0xd,%eax
 8049a18:	29 d0                	sub    %edx,%eax
 8049a1a:	75 ce                	jne    80499ea <submitr+0x5e6>
 8049a1c:	0f b6 94 24 4d 20 00 	movzbl 0x204d(%esp),%edx
 8049a23:	00 
 8049a24:	b8 0a 00 00 00       	mov    $0xa,%eax
 8049a29:	29 d0                	sub    %edx,%eax
 8049a2b:	75 bd                	jne    80499ea <submitr+0x5e6>
 8049a2d:	0f b6 84 24 4e 20 00 	movzbl 0x204e(%esp),%eax
 8049a34:	00 
 8049a35:	f7 d8                	neg    %eax
 8049a37:	eb b1                	jmp    80499ea <submitr+0x5e6>
 8049a39:	b9 00 20 00 00       	mov    $0x2000,%ecx
 8049a3e:	8d 94 24 4c 20 00 00 	lea    0x204c(%esp),%edx
 8049a45:	8d 44 24 40          	lea    0x40(%esp),%eax
 8049a49:	e8 05 f9 ff ff       	call   8049353 <rio_readlineb>
 8049a4e:	85 c0                	test   %eax,%eax
 8049a50:	7e 68                	jle    8049aba <submitr+0x6b6>
 8049a52:	83 ec 08             	sub    $0x8,%esp
 8049a55:	8d 84 24 54 20 00 00 	lea    0x2054(%esp),%eax
 8049a5c:	50                   	push   %eax
 8049a5d:	8b 7c 24 20          	mov    0x20(%esp),%edi
 8049a61:	57                   	push   %edi
 8049a62:	e8 39 ed ff ff       	call   80487a0 <strcpy@plt>
 8049a67:	89 2c 24             	mov    %ebp,(%esp)
 8049a6a:	e8 31 ee ff ff       	call   80488a0 <close@plt>
 8049a6f:	0f b6 17             	movzbl (%edi),%edx
 8049a72:	b8 4f 00 00 00       	mov    $0x4f,%eax
 8049a77:	83 c4 10             	add    $0x10,%esp
 8049a7a:	29 d0                	sub    %edx,%eax
 8049a7c:	75 13                	jne    8049a91 <submitr+0x68d>
 8049a7e:	0f b6 57 01          	movzbl 0x1(%edi),%edx
 8049a82:	b8 4b 00 00 00       	mov    $0x4b,%eax
 8049a87:	29 d0                	sub    %edx,%eax
 8049a89:	75 06                	jne    8049a91 <submitr+0x68d>
 8049a8b:	0f b6 47 02          	movzbl 0x2(%edi),%eax
 8049a8f:	f7 d8                	neg    %eax
 8049a91:	85 c0                	test   %eax,%eax
 8049a93:	0f 95 c0             	setne  %al
 8049a96:	0f b6 c0             	movzbl %al,%eax
 8049a99:	f7 d8                	neg    %eax
 8049a9b:	8b bc 24 4c a0 00 00 	mov    0xa04c(%esp),%edi
 8049aa2:	65 33 3d 14 00 00 00 	xor    %gs:0x14,%edi
 8049aa9:	0f 85 2a 01 00 00    	jne    8049bd9 <submitr+0x7d5>
 8049aaf:	81 c4 5c a0 00 00    	add    $0xa05c,%esp
 8049ab5:	5b                   	pop    %ebx
 8049ab6:	5e                   	pop    %esi
 8049ab7:	5f                   	pop    %edi
 8049ab8:	5d                   	pop    %ebp
 8049ab9:	c3                   	ret    
 8049aba:	8b 44 24 14          	mov    0x14(%esp),%eax
 8049abe:	c7 00 45 72 72 6f    	movl   $0x6f727245,(%eax)
 8049ac4:	c7 40 04 72 3a 20 43 	movl   $0x43203a72,0x4(%eax)
 8049acb:	c7 40 08 6c 69 65 6e 	movl   $0x6e65696c,0x8(%eax)
 8049ad2:	c7 40 0c 74 20 75 6e 	movl   $0x6e752074,0xc(%eax)
 8049ad9:	c7 40 10 61 62 6c 65 	movl   $0x656c6261,0x10(%eax)
 8049ae0:	c7 40 14 20 74 6f 20 	movl   $0x206f7420,0x14(%eax)
 8049ae7:	c7 40 18 72 65 61 64 	movl   $0x64616572,0x18(%eax)
 8049aee:	c7 40 1c 20 73 74 61 	movl   $0x61747320,0x1c(%eax)
 8049af5:	c7 40 20 74 75 73 20 	movl   $0x20737574,0x20(%eax)
 8049afc:	c7 40 24 6d 65 73 73 	movl   $0x7373656d,0x24(%eax)
 8049b03:	c7 40 28 61 67 65 20 	movl   $0x20656761,0x28(%eax)
 8049b0a:	c7 40 2c 66 72 6f 6d 	movl   $0x6d6f7266,0x2c(%eax)
 8049b11:	c7 40 30 20 73 65 72 	movl   $0x72657320,0x30(%eax)
 8049b18:	c7 40 34 76 65 72 00 	movl   $0x726576,0x34(%eax)
 8049b1f:	83 ec 0c             	sub    $0xc,%esp
 8049b22:	55                   	push   %ebp
 8049b23:	e8 78 ed ff ff       	call   80488a0 <close@plt>
 8049b28:	83 c4 10             	add    $0x10,%esp
 8049b2b:	b8 ff ff ff ff       	mov    $0xffffffff,%eax
 8049b30:	e9 66 ff ff ff       	jmp    8049a9b <submitr+0x697>
 8049b35:	a1 1c a3 04 08       	mov    0x804a31c,%eax
 8049b3a:	8b 5c 24 14          	mov    0x14(%esp),%ebx
 8049b3e:	89 03                	mov    %eax,(%ebx)
 8049b40:	a1 5b a3 04 08       	mov    0x804a35b,%eax
 8049b45:	89 43 3f             	mov    %eax,0x3f(%ebx)
 8049b48:	8d 7b 04             	lea    0x4(%ebx),%edi
 8049b4b:	83 e7 fc             	and    $0xfffffffc,%edi
 8049b4e:	29 fb                	sub    %edi,%ebx
 8049b50:	89 d8                	mov    %ebx,%eax
 8049b52:	be 1c a3 04 08       	mov    $0x804a31c,%esi
 8049b57:	29 de                	sub    %ebx,%esi
 8049b59:	83 c0 43             	add    $0x43,%eax
 8049b5c:	c1 e8 02             	shr    $0x2,%eax
 8049b5f:	89 c1                	mov    %eax,%ecx
 8049b61:	f3 a5                	rep movsl %ds:(%esi),%es:(%edi)
 8049b63:	83 ec 0c             	sub    $0xc,%esp
 8049b66:	55                   	push   %ebp
 8049b67:	e8 34 ed ff ff       	call   80488a0 <close@plt>
 8049b6c:	83 c4 10             	add    $0x10,%esp
 8049b6f:	b8 ff ff ff ff       	mov    $0xffffffff,%eax
 8049b74:	e9 22 ff ff ff       	jmp    8049a9b <submitr+0x697>
 8049b79:	8d 84 24 4c 40 00 00 	lea    0x404c(%esp),%eax
 8049b80:	50                   	push   %eax
 8049b81:	ff 74 24 14          	pushl  0x14(%esp)
 8049b85:	ff 74 24 14          	pushl  0x14(%esp)
 8049b89:	ff 74 24 14          	pushl  0x14(%esp)
 8049b8d:	68 60 a3 04 08       	push   $0x804a360
 8049b92:	68 00 20 00 00       	push   $0x2000
 8049b97:	6a 01                	push   $0x1
 8049b99:	8d bc 24 68 20 00 00 	lea    0x2068(%esp),%edi
 8049ba0:	57                   	push   %edi
 8049ba1:	e8 1a ed ff ff       	call   80488c0 <__sprintf_chk@plt>
 8049ba6:	b8 00 00 00 00       	mov    $0x0,%eax
 8049bab:	b9 ff ff ff ff       	mov    $0xffffffff,%ecx
 8049bb0:	f2 ae                	repnz scas %es:(%edi),%al
 8049bb2:	f7 d1                	not    %ecx
 8049bb4:	8d 41 ff             	lea    -0x1(%ecx),%eax
 8049bb7:	89 44 24 28          	mov    %eax,0x28(%esp)
 8049bbb:	83 c4 20             	add    $0x20,%esp
 8049bbe:	89 c3                	mov    %eax,%ebx
 8049bc0:	8d b4 24 4c 20 00 00 	lea    0x204c(%esp),%esi
 8049bc7:	bf 00 00 00 00       	mov    $0x0,%edi
 8049bcc:	85 c0                	test   %eax,%eax
 8049bce:	0f 85 f5 fb ff ff    	jne    80497c9 <submitr+0x3c5>
 8049bd4:	e9 1f fc ff ff       	jmp    80497f8 <submitr+0x3f4>
 8049bd9:	e8 b2 eb ff ff       	call   8048790 <__stack_chk_fail@plt>

08049bde <init_timeout>:
 8049bde:	53                   	push   %ebx
 8049bdf:	83 ec 08             	sub    $0x8,%esp
 8049be2:	8b 5c 24 10          	mov    0x10(%esp),%ebx
 8049be6:	85 db                	test   %ebx,%ebx
 8049be8:	74 24                	je     8049c0e <init_timeout+0x30>
 8049bea:	83 ec 08             	sub    $0x8,%esp
 8049bed:	68 30 93 04 08       	push   $0x8049330
 8049bf2:	6a 0e                	push   $0xe
 8049bf4:	e8 67 eb ff ff       	call   8048760 <signal@plt>
 8049bf9:	85 db                	test   %ebx,%ebx
 8049bfb:	b8 00 00 00 00       	mov    $0x0,%eax
 8049c00:	0f 48 d8             	cmovs  %eax,%ebx
 8049c03:	89 1c 24             	mov    %ebx,(%esp)
 8049c06:	e8 75 eb ff ff       	call   8048780 <alarm@plt>
 8049c0b:	83 c4 10             	add    $0x10,%esp
 8049c0e:	83 c4 08             	add    $0x8,%esp
 8049c11:	5b                   	pop    %ebx
 8049c12:	c3                   	ret    

08049c13 <init_driver>:
 8049c13:	57                   	push   %edi
 8049c14:	56                   	push   %esi
 8049c15:	53                   	push   %ebx
 8049c16:	83 ec 28             	sub    $0x28,%esp
 8049c19:	8b 74 24 38          	mov    0x38(%esp),%esi
 8049c1d:	65 a1 14 00 00 00    	mov    %gs:0x14,%eax
 8049c23:	89 44 24 24          	mov    %eax,0x24(%esp)
 8049c27:	31 c0                	xor    %eax,%eax
 8049c29:	6a 01                	push   $0x1
 8049c2b:	6a 0d                	push   $0xd
 8049c2d:	e8 2e eb ff ff       	call   8048760 <signal@plt>
 8049c32:	83 c4 08             	add    $0x8,%esp
 8049c35:	6a 01                	push   $0x1
 8049c37:	6a 1d                	push   $0x1d
 8049c39:	e8 22 eb ff ff       	call   8048760 <signal@plt>
 8049c3e:	83 c4 08             	add    $0x8,%esp
 8049c41:	6a 01                	push   $0x1
 8049c43:	6a 1d                	push   $0x1d
 8049c45:	e8 16 eb ff ff       	call   8048760 <signal@plt>
 8049c4a:	83 c4 0c             	add    $0xc,%esp
 8049c4d:	6a 00                	push   $0x0
 8049c4f:	6a 01                	push   $0x1
 8049c51:	6a 02                	push   $0x2
 8049c53:	e8 f8 eb ff ff       	call   8048850 <socket@plt>
 8049c58:	83 c4 10             	add    $0x10,%esp
 8049c5b:	85 c0                	test   %eax,%eax
 8049c5d:	0f 88 a9 00 00 00    	js     8049d0c <init_driver+0xf9>
 8049c63:	89 c3                	mov    %eax,%ebx
 8049c65:	83 ec 0c             	sub    $0xc,%esp
 8049c68:	68 ec a3 04 08       	push   $0x804a3ec
 8049c6d:	e8 fe eb ff ff       	call   8048870 <gethostbyname@plt>
 8049c72:	83 c4 10             	add    $0x10,%esp
 8049c75:	85 c0                	test   %eax,%eax
 8049c77:	0f 84 da 00 00 00    	je     8049d57 <init_driver+0x144>
 8049c7d:	8d 7c 24 0c          	lea    0xc(%esp),%edi
 8049c81:	c7 44 24 0c 00 00 00 	movl   $0x0,0xc(%esp)
 8049c88:	00 
 8049c89:	c7 44 24 10 00 00 00 	movl   $0x0,0x10(%esp)
 8049c90:	00 
 8049c91:	c7 44 24 14 00 00 00 	movl   $0x0,0x14(%esp)
 8049c98:	00 
 8049c99:	c7 44 24 18 00 00 00 	movl   $0x0,0x18(%esp)
 8049ca0:	00 
 8049ca1:	66 c7 44 24 0c 02 00 	movw   $0x2,0xc(%esp)
 8049ca8:	6a 0c                	push   $0xc
 8049caa:	ff 70 0c             	pushl  0xc(%eax)
 8049cad:	8b 40 10             	mov    0x10(%eax),%eax
 8049cb0:	ff 30                	pushl  (%eax)
 8049cb2:	8d 44 24 1c          	lea    0x1c(%esp),%eax
 8049cb6:	50                   	push   %eax
 8049cb7:	e8 14 eb ff ff       	call   80487d0 <__memmove_chk@plt>
 8049cbc:	66 c7 44 24 1e 3b 6e 	movw   $0x6e3b,0x1e(%esp)
 8049cc3:	83 c4 0c             	add    $0xc,%esp
 8049cc6:	6a 10                	push   $0x10
 8049cc8:	57                   	push   %edi
 8049cc9:	53                   	push   %ebx
 8049cca:	e8 c1 eb ff ff       	call   8048890 <connect@plt>
 8049ccf:	83 c4 10             	add    $0x10,%esp
 8049cd2:	85 c0                	test   %eax,%eax
 8049cd4:	0f 88 e9 00 00 00    	js     8049dc3 <init_driver+0x1b0>
 8049cda:	83 ec 0c             	sub    $0xc,%esp
 8049cdd:	53                   	push   %ebx
 8049cde:	e8 bd eb ff ff       	call   80488a0 <close@plt>
 8049ce3:	66 c7 06 4f 4b       	movw   $0x4b4f,(%esi)
 8049ce8:	c6 46 02 00          	movb   $0x0,0x2(%esi)
 8049cec:	83 c4 10             	add    $0x10,%esp
 8049cef:	b8 00 00 00 00       	mov    $0x0,%eax
 8049cf4:	8b 54 24 1c          	mov    0x1c(%esp),%edx
 8049cf8:	65 33 15 14 00 00 00 	xor    %gs:0x14,%edx
 8049cff:	0f 85 eb 00 00 00    	jne    8049df0 <init_driver+0x1dd>
 8049d05:	83 c4 20             	add    $0x20,%esp
 8049d08:	5b                   	pop    %ebx
 8049d09:	5e                   	pop    %esi
 8049d0a:	5f                   	pop    %edi
 8049d0b:	c3                   	ret    
 8049d0c:	c7 06 45 72 72 6f    	movl   $0x6f727245,(%esi)
 8049d12:	c7 46 04 72 3a 20 43 	movl   $0x43203a72,0x4(%esi)
 8049d19:	c7 46 08 6c 69 65 6e 	movl   $0x6e65696c,0x8(%esi)
 8049d20:	c7 46 0c 74 20 75 6e 	movl   $0x6e752074,0xc(%esi)
 8049d27:	c7 46 10 61 62 6c 65 	movl   $0x656c6261,0x10(%esi)
 8049d2e:	c7 46 14 20 74 6f 20 	movl   $0x206f7420,0x14(%esi)
 8049d35:	c7 46 18 63 72 65 61 	movl   $0x61657263,0x18(%esi)
 8049d3c:	c7 46 1c 74 65 20 73 	movl   $0x73206574,0x1c(%esi)
 8049d43:	c7 46 20 6f 63 6b 65 	movl   $0x656b636f,0x20(%esi)
 8049d4a:	66 c7 46 24 74 00    	movw   $0x74,0x24(%esi)
 8049d50:	b8 ff ff ff ff       	mov    $0xffffffff,%eax
 8049d55:	eb 9d                	jmp    8049cf4 <init_driver+0xe1>
 8049d57:	c7 06 45 72 72 6f    	movl   $0x6f727245,(%esi)
 8049d5d:	c7 46 04 72 3a 20 44 	movl   $0x44203a72,0x4(%esi)
 8049d64:	c7 46 08 4e 53 20 69 	movl   $0x6920534e,0x8(%esi)
 8049d6b:	c7 46 0c 73 20 75 6e 	movl   $0x6e752073,0xc(%esi)
 8049d72:	c7 46 10 61 62 6c 65 	movl   $0x656c6261,0x10(%esi)
 8049d79:	c7 46 14 20 74 6f 20 	movl   $0x206f7420,0x14(%esi)
 8049d80:	c7 46 18 72 65 73 6f 	movl   $0x6f736572,0x18(%esi)
 8049d87:	c7 46 1c 6c 76 65 20 	movl   $0x2065766c,0x1c(%esi)
 8049d8e:	c7 46 20 73 65 72 76 	movl   $0x76726573,0x20(%esi)
 8049d95:	c7 46 24 65 72 20 61 	movl   $0x61207265,0x24(%esi)
 8049d9c:	c7 46 28 64 64 72 65 	movl   $0x65726464,0x28(%esi)
 8049da3:	66 c7 46 2c 73 73    	movw   $0x7373,0x2c(%esi)
 8049da9:	c6 46 2e 00          	movb   $0x0,0x2e(%esi)
 8049dad:	83 ec 0c             	sub    $0xc,%esp
 8049db0:	53                   	push   %ebx
 8049db1:	e8 ea ea ff ff       	call   80488a0 <close@plt>
 8049db6:	83 c4 10             	add    $0x10,%esp
 8049db9:	b8 ff ff ff ff       	mov    $0xffffffff,%eax
 8049dbe:	e9 31 ff ff ff       	jmp    8049cf4 <init_driver+0xe1>
 8049dc3:	83 ec 0c             	sub    $0xc,%esp
 8049dc6:	68 ec a3 04 08       	push   $0x804a3ec
 8049dcb:	68 ac a3 04 08       	push   $0x804a3ac
 8049dd0:	6a ff                	push   $0xffffffff
 8049dd2:	6a 01                	push   $0x1
 8049dd4:	56                   	push   %esi
 8049dd5:	e8 e6 ea ff ff       	call   80488c0 <__sprintf_chk@plt>
 8049dda:	83 c4 14             	add    $0x14,%esp
 8049ddd:	53                   	push   %ebx
 8049dde:	e8 bd ea ff ff       	call   80488a0 <close@plt>
 8049de3:	83 c4 10             	add    $0x10,%esp
 8049de6:	b8 ff ff ff ff       	mov    $0xffffffff,%eax
 8049deb:	e9 04 ff ff ff       	jmp    8049cf4 <init_driver+0xe1>
 8049df0:	e8 9b e9 ff ff       	call   8048790 <__stack_chk_fail@plt>

08049df5 <driver_post>:
 8049df5:	53                   	push   %ebx
 8049df6:	83 ec 08             	sub    $0x8,%esp
 8049df9:	8b 54 24 10          	mov    0x10(%esp),%edx
 8049dfd:	8b 44 24 18          	mov    0x18(%esp),%eax
 8049e01:	8b 5c 24 1c          	mov    0x1c(%esp),%ebx
 8049e05:	85 c0                	test   %eax,%eax
 8049e07:	75 17                	jne    8049e20 <driver_post+0x2b>
 8049e09:	85 d2                	test   %edx,%edx
 8049e0b:	74 05                	je     8049e12 <driver_post+0x1d>
 8049e0d:	80 3a 00             	cmpb   $0x0,(%edx)
 8049e10:	75 34                	jne    8049e46 <driver_post+0x51>
 8049e12:	66 c7 03 4f 4b       	movw   $0x4b4f,(%ebx)
 8049e17:	c6 43 02 00          	movb   $0x0,0x2(%ebx)
 8049e1b:	83 c4 08             	add    $0x8,%esp
 8049e1e:	5b                   	pop    %ebx
 8049e1f:	c3                   	ret    
 8049e20:	83 ec 04             	sub    $0x4,%esp
 8049e23:	ff 74 24 18          	pushl  0x18(%esp)
 8049e27:	68 fa a3 04 08       	push   $0x804a3fa
 8049e2c:	6a 01                	push   $0x1
 8049e2e:	e8 0d ea ff ff       	call   8048840 <__printf_chk@plt>
 8049e33:	66 c7 03 4f 4b       	movw   $0x4b4f,(%ebx)
 8049e38:	c6 43 02 00          	movb   $0x0,0x2(%ebx)
 8049e3c:	83 c4 10             	add    $0x10,%esp
 8049e3f:	b8 00 00 00 00       	mov    $0x0,%eax
 8049e44:	eb d5                	jmp    8049e1b <driver_post+0x26>
 8049e46:	83 ec 04             	sub    $0x4,%esp
 8049e49:	53                   	push   %ebx
 8049e4a:	ff 74 24 1c          	pushl  0x1c(%esp)
 8049e4e:	68 11 a4 04 08       	push   $0x804a411
 8049e53:	52                   	push   %edx
 8049e54:	68 19 a4 04 08       	push   $0x804a419
 8049e59:	68 6e 3b 00 00       	push   $0x3b6e
 8049e5e:	68 ec a3 04 08       	push   $0x804a3ec
 8049e63:	e8 9c f5 ff ff       	call   8049404 <submitr>
 8049e68:	83 c4 20             	add    $0x20,%esp
 8049e6b:	eb ae                	jmp    8049e1b <driver_post+0x26>
 8049e6d:	66 90                	xchg   %ax,%ax
 8049e6f:	90                   	nop

08049e70 <__libc_csu_init>:
 8049e70:	55                   	push   %ebp
 8049e71:	57                   	push   %edi
 8049e72:	56                   	push   %esi
 8049e73:	53                   	push   %ebx
 8049e74:	e8 97 ea ff ff       	call   8048910 <__x86.get_pc_thunk.bx>
 8049e79:	81 c3 87 21 00 00    	add    $0x2187,%ebx
 8049e7f:	83 ec 0c             	sub    $0xc,%esp
 8049e82:	8b 6c 24 20          	mov    0x20(%esp),%ebp
 8049e86:	8d b3 0c ff ff ff    	lea    -0xf4(%ebx),%esi
 8049e8c:	e8 63 e8 ff ff       	call   80486f4 <_init>
 8049e91:	8d 83 08 ff ff ff    	lea    -0xf8(%ebx),%eax
 8049e97:	29 c6                	sub    %eax,%esi
 8049e99:	c1 fe 02             	sar    $0x2,%esi
 8049e9c:	85 f6                	test   %esi,%esi
 8049e9e:	74 25                	je     8049ec5 <__libc_csu_init+0x55>
 8049ea0:	31 ff                	xor    %edi,%edi
 8049ea2:	8d b6 00 00 00 00    	lea    0x0(%esi),%esi
 8049ea8:	83 ec 04             	sub    $0x4,%esp
 8049eab:	ff 74 24 2c          	pushl  0x2c(%esp)
 8049eaf:	ff 74 24 2c          	pushl  0x2c(%esp)
 8049eb3:	55                   	push   %ebp
 8049eb4:	ff 94 bb 08 ff ff ff 	call   *-0xf8(%ebx,%edi,4)
 8049ebb:	83 c7 01             	add    $0x1,%edi
 8049ebe:	83 c4 10             	add    $0x10,%esp
 8049ec1:	39 fe                	cmp    %edi,%esi
 8049ec3:	75 e3                	jne    8049ea8 <__libc_csu_init+0x38>
 8049ec5:	83 c4 0c             	add    $0xc,%esp
 8049ec8:	5b                   	pop    %ebx
 8049ec9:	5e                   	pop    %esi
 8049eca:	5f                   	pop    %edi
 8049ecb:	5d                   	pop    %ebp
 8049ecc:	c3                   	ret    
 8049ecd:	8d 76 00             	lea    0x0(%esi),%esi

08049ed0 <__libc_csu_fini>:
 8049ed0:	f3 c3                	repz ret 

Disassembly of section .fini:

08049ed4 <_fini>:
 8049ed4:	53                   	push   %ebx
 8049ed5:	83 ec 08             	sub    $0x8,%esp
 8049ed8:	e8 33 ea ff ff       	call   8048910 <__x86.get_pc_thunk.bx>
 8049edd:	81 c3 23 21 00 00    	add    $0x2123,%ebx
 8049ee3:	83 c4 08             	add    $0x8,%esp
 8049ee6:	5b                   	pop    %ebx
 8049ee7:	c3                   	ret    
